EXPORTS
    _ZN5veins10BaseModule13receiveSignalEPN7omnetpp10cComponentEiPNS1_7cObjectE @1
    _ZN5veins10BaseModule6finishEPN7omnetpp10cComponentEi @2
    _ZN5veins13BaseApplLayer14handleUpperMsgEPN7omnetpp8cMessageE @3
    _ZN5veins13BaseApplLayer18handleLowerControlEPN7omnetpp8cMessageE @4
    _ZN5veins13BaseApplLayer18handleUpperControlEPN7omnetpp8cMessageE @5
    _ZN5veins15BaseFrame1609_428getRecipientAddressForUpdateEv @6
    _ZN5veins17DemoBaseApplLayer5onBSMEPNS_17DemoSafetyMessageE @7
    _ZN5veins5CoordD0Ev @8
    _ZN6tribft10VRMManager10applyDecayEv @9
    _ZN6tribft10VRMManager10initializeEv @10
    _ZN6tribft10VRMManager11recordEventERKNSt3__112basic_stringIcNS1_11char_traitsIcEENS1_9allocatorIcEEEENS_15ReputationEventE @11
    _ZN6tribft10VRMManager11updateScoreERKNSt3__112basic_stringIcNS1_11char_traitsIcEENS1_9allocatorIcEEEEd @12
    _ZN6tribft10VRMManager12registerNodeERKNSt3__112basic_stringIcNS1_11char_traitsIcEENS1_9allocatorIcEEEEd @13
    _ZN6tribft10VRMManager13updateForVoteERKNSt3__112basic_stringIcNS1_11char_traitsIcEENS1_9allocatorIcEEEEb @14
    _ZN6tribft10VRMManager14cleanupHistoryEi @15
    _ZN6tribft10VRMManager14setLogCallbackENSt3__18functionIFvRKNS1_12basic_stringIcNS1_11char_traitsIcEENS1_9allocatorIcEEEEEEE @16
    _ZN6tribft10VRMManager14unregisterNodeERKNSt3__112basic_stringIcNS1_11char_traitsIcEENS1_9allocatorIcEEEE @17
    _ZN6tribft10VRMManager17updateForProposalERKNSt3__112basic_stringIcNS1_11char_traitsIcEENS1_9allocatorIcEEEEb @18
    _ZN6tribft10VRMManager18penalizeForTimeoutERKNSt3__112basic_stringIcNS1_11char_traitsIcEENS1_9allocatorIcEEEE @19
    _ZN6tribft10VRMManager20penalizeForMaliciousERKNSt3__112basic_stringIcNS1_11char_traitsIcEENS1_9allocatorIcEEEE @20
    _ZN6tribft10VRMManager22updateForConsensusFailERKNSt3__16vectorINS1_12basic_stringIcNS1_11char_traitsIcEENS1_9allocatorIcEEEENS6_IS8_EEEE @21
    _ZN6tribft10VRMManager25updateForConsensusSuccessERKNSt3__16vectorINS1_12basic_stringIcNS1_11char_traitsIcEENS1_9allocatorIcEEEENS6_IS8_EEEE @22
    _ZN6tribft10VRMManager3logERKNSt3__112basic_stringIcNS1_11char_traitsIcEENS1_9allocatorIcEEEE @23
    _ZN6tribft10VRMManagerC1Ev @24
    _ZN6tribft10VRMManagerC2Ev @25
    _ZN6tribft11BlockHeader19calculateMerkleRootERKNSt3__16vectorINS_11TransactionENS1_9allocatorIS3_EEEE @26
    _ZN6tribft11BlockHeaderC2Ev @27
    _ZN6tribft11TransactionC2ERKS0_ @28
    _ZN6tribft11TransactionC2Ev @29
    _ZN6tribft11TransactionD2Ev @30
    _ZN6tribft11VRFSelector10initializeEi @31
    _ZN6tribft11VRFSelector11updateEpochEi @32
    _ZN6tribft11VRFSelector14setLogCallbackENSt3__18functionIFvRKNS1_12basic_stringIcNS1_11char_traitsIcEENS1_9allocatorIcEEEEEEE @33
    _ZN6tribft11VRFSelector15setCurrentGroupERKNS_14ConsensusGroupE @34
    _ZN6tribft11VRFSelector19electConsensusGroupERKNSt3__16vectorINS1_12basic_stringIcNS1_11char_traitsIcEENS1_9allocatorIcEEEENS6_IS8_EEEESC_iiy @35
    _ZN6tribft11VRFSelectorC1Ev @36
    _ZN6tribft11VRFSelectorC2Ev @37
    _ZN6tribft11VoteMessage10setApproveEb @38
    _ZN6tribft11VoteMessage12parsimUnpackEPN7omnetpp11cCommBufferE @39
    _ZN6tribft11VoteMessage12setSignatureEPKc @40
    _ZN6tribft11VoteMessage13setProposalIDEPKc @41
    _ZN6tribft11VoteMessage4copyERKS0_ @42
    _ZN6tribft11VoteMessage8setPhaseEi @43
    _ZN6tribft11VoteMessageC1EPKcs @44
    _ZN6tribft11VoteMessageC1ERKS0_ @45
    _ZN6tribft11VoteMessageC2EPKcs @46
    _ZN6tribft11VoteMessageC2ERKS0_ @47
    _ZN6tribft11VoteMessageD0Ev @48
    _ZN6tribft11VoteMessageD1Ev @49
    _ZN6tribft11VoteMessageD2Ev @50
    _ZN6tribft11VoteMessageaSERKS0_ @51
    _ZN6tribft12PendingEventC2Ev @52
    _ZN6tribft12PendingEventD2Ev @53
    _ZN6tribft13DecideMessage12parsimUnpackEPN7omnetpp11cCommBufferE @54
    _ZN6tribft13DecideMessage12setBlockHashEPKc @55
    _ZN6tribft13DecideMessage12setCommittedEb @56
    _ZN6tribft13DecideMessage13setProposalIDEPKc @57
    _ZN6tribft13DecideMessage14setBlockHeightEi @58
    _ZN6tribft13DecideMessage4copyERKS0_ @59
    _ZN6tribft13DecideMessageC1EPKcs @60
    _ZN6tribft13DecideMessageC1ERKS0_ @61
    _ZN6tribft13DecideMessageC2EPKcs @62
    _ZN6tribft13DecideMessageC2ERKS0_ @63
    _ZN6tribft13DecideMessageD0Ev @64
    _ZN6tribft13DecideMessageD1Ev @65
    _ZN6tribft13DecideMessageD2Ev @66
    _ZN6tribft13DecideMessageaSERKS0_ @67
    _ZN6tribft13TriBFTMessage10setShardIDEi @68
    _ZN6tribft13TriBFTMessage11setSenderIDEPKc @69
    _ZN6tribft13TriBFTMessage12parsimUnpackEPN7omnetpp11cCommBufferE @70
    _ZN6tribft13TriBFTMessage12setTimestampEN7omnetpp7SimTimeE @71
    _ZN6tribft13TriBFTMessage13setViewNumberEi @72
    _ZN6tribft13TriBFTMessage14setMessageTypeEi @73
    _ZN6tribft13TriBFTMessage4copyERKS0_ @74
    _ZN6tribft13TriBFTMessageC1EPKcs @75
    _ZN6tribft13TriBFTMessageC1ERKS0_ @76
    _ZN6tribft13TriBFTMessageC2EPKcs @77
    _ZN6tribft13TriBFTMessageC2ERKS0_ @78
    _ZN6tribft13TriBFTMessageD0Ev @79
    _ZN6tribft13TriBFTMessageD1Ev @80
    _ZN6tribft13TriBFTMessageD2Ev @81
    _ZN6tribft13TriBFTMessageaSERKS0_ @82
    _ZN6tribft14ConsensusGroupD2Ev @83
    _ZN6tribft14HotStuffEngine10handleVoteERKNS_8VoteInfoE @84
    _ZN6tribft14HotStuffEngine10initializeERKNSt3__112basic_stringIcNS1_11char_traitsIcEENS1_9allocatorIcEEEEi @85
    _ZN6tribft14HotStuffEngine11commitBlockEv @86
    _ZN6tribft14HotStuffEngine12advancePhaseEv @87
    _ZN6tribft14HotStuffEngine12proposeBlockERKNSt3__16vectorINS_11TransactionENS1_9allocatorIS3_EEEE @88
    _ZN6tribft14HotStuffEngine12setShardSizeEi @89
    _ZN6tribft14HotStuffEngine12syncToHeightEy @90
    _ZN6tribft14HotStuffEngine13handleTimeoutEv @91
    _ZN6tribft14HotStuffEngine14handleProposalERKNS_17ConsensusProposalE @92
    _ZN6tribft14HotStuffEngine14setLogCallbackENSt3__18functionIFvRKNS1_12basic_stringIcNS1_11char_traitsIcEENS1_9allocatorIcEEEEEEE @93
    _ZN6tribft14HotStuffEngine15setVoteCallbackENSt3__18functionIFvRKNS_8VoteInfoEEEE @94
    _ZN6tribft14HotStuffEngine16validateProposalERKNS_17ConsensusProposalE @95
    _ZN6tribft14HotStuffEngine17setCommitCallbackENSt3__18functionIFvRKNS_5BlockEEEE @96
    _ZN6tribft14HotStuffEngine18generateProposalIDEv @97
    _ZN6tribft14HotStuffEngine18handlePhaseAdvanceERKNSt3__112basic_stringIcNS1_11char_traitsIcEENS1_9allocatorIcEEEENS_14ConsensusPhaseE @98
    _ZN6tribft14HotStuffEngine19resetConsensusStateEv @99
    _ZN6tribft14HotStuffEngine19setProposalCallbackENSt3__18functionIFvRKNS_17ConsensusProposalEEEE @100
    _ZN6tribft14HotStuffEngine23setPhaseAdvanceCallbackENSt3__18functionIFvRKNS1_12basic_stringIcNS1_11char_traitsIcEENS1_9allocatorIcEEEENS_14ConsensusPhaseESB_EEE @101
    _ZN6tribft14HotStuffEngine3logERKNSt3__112basic_stringIcNS1_11char_traitsIcEENS1_9allocatorIcEEEE @102
    _ZN6tribft14HotStuffEngine8createQCERKNSt3__112basic_stringIcNS1_11char_traitsIcEENS1_9allocatorIcEEEENS_14ConsensusPhaseE @103
    _ZN6tribft14HotStuffEngine8sendVoteERKNS_17ConsensusProposalENS_14ConsensusPhaseEb @104
    _ZN6tribft14HotStuffEngine9hasQuorumERKNSt3__112basic_stringIcNS1_11char_traitsIcEENS1_9allocatorIcEEEENS_14ConsensusPhaseE @105
    _ZN6tribft14HotStuffEngineC1Ev @106
    _ZN6tribft14HotStuffEngineC2Ev @107
    _ZN6tribft14HotStuffEngineD2Ev @108
    _ZN6tribft14LowRepVerifier10initializeEid @109
    _ZN6tribft14LowRepVerifier11submitEventERKNSt3__112basic_stringIcNS1_11char_traitsIcEENS1_9allocatorIcEEEES9_S9_d @110
    _ZN6tribft14LowRepVerifier14setLogCallbackENSt3__18functionIFvRKNS1_12basic_stringIcNS1_11char_traitsIcEENS1_9allocatorIcEEEEEEE @111
    _ZN6tribft14LowRepVerifier15assignVerifiersERKNSt3__112basic_stringIcNS1_11char_traitsIcEENS1_9allocatorIcEEEERKNS1_6vectorIS7_NS5_IS7_EEEEy @112
    _ZN6tribft14LowRepVerifier15generateEventIDERKNSt3__112basic_stringIcNS1_11char_traitsIcEENS1_9allocatorIcEEEEN7omnetpp7SimTimeE @113
    _ZN6tribft14LowRepVerifier15selectVerifiersERKNSt3__16vectorINS1_12basic_stringIcNS1_11char_traitsIcEENS1_9allocatorIcEEEENS6_IS8_EEEEiy @114
    _ZN6tribft14LowRepVerifier18submitVerificationERKNSt3__112basic_stringIcNS1_11char_traitsIcEENS1_9allocatorIcEEEES9_b @115
    _ZN6tribft14LowRepVerifier20cleanupExpiredEventsEN7omnetpp7SimTimeEd @116
    _ZN6tribft14LowRepVerifier23setVerificationCallbackENSt3__18functionIFvRKNS1_12basic_stringIcNS1_11char_traitsIcEENS1_9allocatorIcEEEEbEEE @117
    _ZN6tribft14LowRepVerifierC1Ev @118
    _ZN6tribft14LowRepVerifierC2Ev @119
    _ZN6tribft15LightweightSync10initializeENS_8NodeRoleE @120
    _ZN6tribft15LightweightSync10syncHeaderERKNS_11BlockHeaderE @121
    _ZN6tribft15LightweightSync14setLogCallbackENSt3__18functionIFvRKNS1_12basic_stringIcNS1_11char_traitsIcEENS1_9allocatorIcEEEEEEE @122
    _ZN6tribft15LightweightSync16receiveFullBlockERKNS_5BlockE @123
    _ZN6tribft15LightweightSync16requestFullBlockEy @124
    _ZN6tribft15LightweightSync17generateRequestIDEy @125
    _ZN6tribft15LightweightSync18setRequestCallbackENSt3__18functionIFvRKNS1_12basic_stringIcNS1_11char_traitsIcEENS1_9allocatorIcEEEEyEEE @126
    _ZN6tribft15LightweightSync7cleanupEi @127
    _ZN6tribft15LightweightSyncC1Ev @128
    _ZN6tribft15LightweightSyncC2Ev @129
    _ZN6tribft15ProposalMessage10setTxCountEi @130
    _ZN6tribft15ProposalMessage11setLeaderIDEPKc @131
    _ZN6tribft15ProposalMessage12parsimUnpackEPN7omnetpp11cCommBufferE @132
    _ZN6tribft15ProposalMessage12setBlockHashEPKc @133
    _ZN6tribft15ProposalMessage13setProposalIDEPKc @134
    _ZN6tribft15ProposalMessage14setBlockHeightEi @135
    _ZN6tribft15ProposalMessage4copyERKS0_ @136
    _ZN6tribft15ProposalMessageC1EPKcs @137
    _ZN6tribft15ProposalMessageC1ERKS0_ @138
    _ZN6tribft15ProposalMessageC2EPKcs @139
    _ZN6tribft15ProposalMessageC2ERKS0_ @140
    _ZN6tribft15ProposalMessageD0Ev @141
    _ZN6tribft15ProposalMessageD1Ev @142
    _ZN6tribft15ProposalMessageD2Ev @143
    _ZN6tribft15ProposalMessageaSERKS0_ @144
    _ZN6tribft16HeartbeatMessage12parsimUnpackEPN7omnetpp11cCommBufferE @145
    _ZN6tribft16HeartbeatMessage14setCurrentLoadEd @146
    _ZN6tribft16HeartbeatMessage16setActiveTxCountEi @147
    _ZN6tribft16HeartbeatMessage4copyERKS0_ @148
    _ZN6tribft16HeartbeatMessageC1EPKcs @149
    _ZN6tribft16HeartbeatMessageC1ERKS0_ @150
    _ZN6tribft16HeartbeatMessageC2EPKcs @151
    _ZN6tribft16HeartbeatMessageC2ERKS0_ @152
    _ZN6tribft16HeartbeatMessageD0Ev @153
    _ZN6tribft16HeartbeatMessageD1Ev @154
    _ZN6tribft16HeartbeatMessageD2Ev @155
    _ZN6tribft16HeartbeatMessageaSERKS0_ @156
    _ZN6tribft16ReputationRecordC2ERKNSt3__112basic_stringIcNS1_11char_traitsIcEENS1_9allocatorIcEEEE @157
    _ZN6tribft16ReputationRecordD2Ev @158
    _ZN6tribft16ShardJoinRequest11setLatitudeEd @159
    _ZN6tribft16ShardJoinRequest12parsimUnpackEPN7omnetpp11cCommBufferE @160
    _ZN6tribft16ShardJoinRequest12setLongitudeEd @161
    _ZN6tribft16ShardJoinRequest18setReputationScoreEd @162
    _ZN6tribft16ShardJoinRequest4copyERKS0_ @163
    _ZN6tribft16ShardJoinRequestC1EPKcs @164
    _ZN6tribft16ShardJoinRequestC1ERKS0_ @165
    _ZN6tribft16ShardJoinRequestC2EPKcs @166
    _ZN6tribft16ShardJoinRequestC2ERKS0_ @167
    _ZN6tribft16ShardJoinRequestD0Ev @168
    _ZN6tribft16ShardJoinRequestD1Ev @169
    _ZN6tribft16ShardJoinRequestD2Ev @170
    _ZN6tribft16ShardJoinRequestaSERKS0_ @171
    _ZN6tribft16VerificationTaskD2Ev @172
    _ZN6tribft17ConsensusProposalD2Ev @173
    _ZN6tribft17QuorumCertificateD2Ev @174
    _ZN6tribft17ShardJoinResponse11setAcceptedEb @175
    _ZN6tribft17ShardJoinResponse11setLeaderIDEPKc @176
    _ZN6tribft17ShardJoinResponse12parsimUnpackEPN7omnetpp11cCommBufferE @177
    _ZN6tribft17ShardJoinResponse14setMemberCountEi @178
    _ZN6tribft17ShardJoinResponse18setAssignedShardIDEi @179
    _ZN6tribft17ShardJoinResponse4copyERKS0_ @180
    _ZN6tribft17ShardJoinResponseC1EPKcs @181
    _ZN6tribft17ShardJoinResponseC1ERKS0_ @182
    _ZN6tribft17ShardJoinResponseC2EPKcs @183
    _ZN6tribft17ShardJoinResponseC2ERKS0_ @184
    _ZN6tribft17ShardJoinResponseD0Ev @185
    _ZN6tribft17ShardJoinResponseD1Ev @186
    _ZN6tribft17ShardJoinResponseD2Ev @187
    _ZN6tribft17ShardJoinResponseaSERKS0_ @188
    _ZN6tribft17ShardLeaveMessage12parsimUnpackEPN7omnetpp11cCommBufferE @189
    _ZN6tribft17ShardLeaveMessage16setLeavingNodeIDEPKc @190
    _ZN6tribft17ShardLeaveMessage4copyERKS0_ @191
    _ZN6tribft17ShardLeaveMessage9setReasonEPKc @192
    _ZN6tribft17ShardLeaveMessageC1EPKcs @193
    _ZN6tribft17ShardLeaveMessageC1ERKS0_ @194
    _ZN6tribft17ShardLeaveMessageC2EPKcs @195
    _ZN6tribft17ShardLeaveMessageC2ERKS0_ @196
    _ZN6tribft17ShardLeaveMessageD0Ev @197
    _ZN6tribft17ShardLeaveMessageD1Ev @198
    _ZN6tribft17ShardLeaveMessageD2Ev @199
    _ZN6tribft17ShardLeaveMessageaSERKS0_ @200
    _ZN6tribft17ViewChangeMessage12parsimUnpackEPN7omnetpp11cCommBufferE @201
    _ZN6tribft17ViewChangeMessage14setNewLeaderIDEPKc @202
    _ZN6tribft17ViewChangeMessage16setNewViewNumberEi @203
    _ZN6tribft17ViewChangeMessage4copyERKS0_ @204
    _ZN6tribft17ViewChangeMessage9setReasonEPKc @205
    _ZN6tribft17ViewChangeMessageC1EPKcs @206
    _ZN6tribft17ViewChangeMessageC1ERKS0_ @207
    _ZN6tribft17ViewChangeMessageC2EPKcs @208
    _ZN6tribft17ViewChangeMessageC2ERKS0_ @209
    _ZN6tribft17ViewChangeMessageD0Ev @210
    _ZN6tribft17ViewChangeMessageD1Ev @211
    _ZN6tribft17ViewChangeMessageD2Ev @212
    _ZN6tribft17ViewChangeMessageaSERKS0_ @213
    _ZN6tribft18ShardUpdateMessage11setLeaderIDEPKc @214
    _ZN6tribft18ShardUpdateMessage12parsimUnpackEPN7omnetpp11cCommBufferE @215
    _ZN6tribft18ShardUpdateMessage12setCenterLatEd @216
    _ZN6tribft18ShardUpdateMessage12setCenterLonEd @217
    _ZN6tribft18ShardUpdateMessage13setShardLevelEi @218
    _ZN6tribft18ShardUpdateMessage14setMemberCountEi @219
    _ZN6tribft18ShardUpdateMessage4copyERKS0_ @220
    _ZN6tribft18ShardUpdateMessage9setRadiusEd @221
    _ZN6tribft18ShardUpdateMessageC1EPKcs @222
    _ZN6tribft18ShardUpdateMessageC1ERKS0_ @223
    _ZN6tribft18ShardUpdateMessageC2EPKcs @224
    _ZN6tribft18ShardUpdateMessageC2ERKS0_ @225
    _ZN6tribft18ShardUpdateMessageD0Ev @226
    _ZN6tribft18ShardUpdateMessageD1Ev @227
    _ZN6tribft18ShardUpdateMessageD2Ev @228
    _ZN6tribft18ShardUpdateMessageaSERKS0_ @229
    _ZN6tribft18TestMinimalMessage12parsimUnpackEPN7omnetpp11cCommBufferE @230
    _ZN6tribft18TestMinimalMessage12setTestFieldEPKc @231
    _ZN6tribft18TestMinimalMessage4copyERKS0_ @232
    _ZN6tribft18TestMinimalMessageC1EPKcs @233
    _ZN6tribft18TestMinimalMessageC1ERKS0_ @234
    _ZN6tribft18TestMinimalMessageC2EPKcs @235
    _ZN6tribft18TestMinimalMessageC2ERKS0_ @236
    _ZN6tribft18TestMinimalMessageD0Ev @237
    _ZN6tribft18TestMinimalMessageD1Ev @238
    _ZN6tribft18TestMinimalMessageD2Ev @239
    _ZN6tribft18TestMinimalMessageaSERKS0_ @240
    _ZN6tribft18TransactionMessage11setHopCountEi @241
    _ZN6tribft18TransactionMessage12parsimUnpackEPN7omnetpp11cCommBufferE @242
    _ZN6tribft18TransactionMessage16setTargetShardIdEi @243
    _ZN6tribft18TransactionMessage20setActualMessageTypeEi @244
    _ZN6tribft18TransactionMessage25setSenderDistanceToLeaderEd @245
    _ZN6tribft18TransactionMessage4copyERKS0_ @246
    _ZN6tribft18TransactionMessage7setTxIDEPKc @247
    _ZN6tribft18TransactionMessage9setTxDataEPKc @248
    _ZN6tribft18TransactionMessageC1EPKcs @249
    _ZN6tribft18TransactionMessageC1ERKS0_ @250
    _ZN6tribft18TransactionMessageC2EPKcs @251
    _ZN6tribft18TransactionMessageC2ERKS0_ @252
    _ZN6tribft18TransactionMessageD0Ev @253
    _ZN6tribft18TransactionMessageD1Ev @254
    _ZN6tribft18TransactionMessageD2Ev @255
    _ZN6tribft18TransactionMessageaSERKS0_ @256
    _ZN6tribft19CrossShardTxMessage12parsimUnpackEPN7omnetpp11cCommBufferE @257
    _ZN6tribft19CrossShardTxMessage16setSourceShardIDEi @258
    _ZN6tribft19CrossShardTxMessage16setTargetShardIDEi @259
    _ZN6tribft19CrossShardTxMessage4copyERKS0_ @260
    _ZN6tribft19CrossShardTxMessage7setTxIDEPKc @261
    _ZN6tribft19CrossShardTxMessage9setTxDataEPKc @262
    _ZN6tribft19CrossShardTxMessageC1EPKcs @263
    _ZN6tribft19CrossShardTxMessageC1ERKS0_ @264
    _ZN6tribft19CrossShardTxMessageC2EPKcs @265
    _ZN6tribft19CrossShardTxMessageC2ERKS0_ @266
    _ZN6tribft19CrossShardTxMessageD0Ev @267
    _ZN6tribft19CrossShardTxMessageD1Ev @268
    _ZN6tribft19CrossShardTxMessageD2Ev @269
    _ZN6tribft19CrossShardTxMessageaSERKS0_ @270
    _ZN6tribft19PhaseAdvanceMessage10setToPhaseEi @271
    _ZN6tribft19PhaseAdvanceMessage12parsimUnpackEPN7omnetpp11cCommBufferE @272
    _ZN6tribft19PhaseAdvanceMessage12setFromPhaseEi @273
    _ZN6tribft19PhaseAdvanceMessage13setProposalIDEPKc @274
    _ZN6tribft19PhaseAdvanceMessage4copyERKS0_ @275
    _ZN6tribft19PhaseAdvanceMessageC1EPKcs @276
    _ZN6tribft19PhaseAdvanceMessageC1ERKS0_ @277
    _ZN6tribft19PhaseAdvanceMessageC2EPKcs @278
    _ZN6tribft19PhaseAdvanceMessageC2ERKS0_ @279
    _ZN6tribft19PhaseAdvanceMessageD0Ev @280
    _ZN6tribft19PhaseAdvanceMessageD1Ev @281
    _ZN6tribft19PhaseAdvanceMessageD2Ev @282
    _ZN6tribft19PhaseAdvanceMessageaSERKS0_ @283
    _ZN6tribft20RegionalShardManager10initializeEdii @284
    _ZN6tribft20RegionalShardManager10mergeShardEi @285
    _ZN6tribft20RegionalShardManager10removeNodeERKNSt3__112basic_stringIcNS1_11char_traitsIcEENS1_9allocatorIcEEEE @286
    _ZN6tribft20RegionalShardManager10splitShardEi @287
    _ZN6tribft20RegionalShardManager11createShardERKNS_8GeoCoordE @288
    _ZN6tribft20RegionalShardManager11electLeaderEi @289
    _ZN6tribft20RegionalShardManager15rebalanceShardsEv @290
    _ZN6tribft20RegionalShardManager17getGlobalInstanceEv @291
    _ZN6tribft20RegionalShardManager18updateNodeLocationERKNSt3__112basic_stringIcNS1_11char_traitsIcEENS1_9allocatorIcEEEERKNS_8GeoCoordE @292
    _ZN6tribft20RegionalShardManager19electConsensusGroupEii @293
    _ZN6tribft20RegionalShardManager23electLeaderByReputationEi @294
    _ZN6tribft20RegionalShardManager7addNodeERKNSt3__112basic_stringIcNS1_11char_traitsIcEENS1_9allocatorIcEEEERKNS_8GeoCoordEd @295
    _ZN6tribft20RegionalShardManagerC1Ev @296
    _ZN6tribft20RegionalShardManagerC2Ev @297
    _ZN6tribft21LeaderElectionMessage12parsimUnpackEPN7omnetpp11cCommBufferE @298
    _ZN6tribft21LeaderElectionMessage12setVoteCountEi @299
    _ZN6tribft21LeaderElectionMessage14setCandidateIDEPKc @300
    _ZN6tribft21LeaderElectionMessage18setReputationScoreEd @301
    _ZN6tribft21LeaderElectionMessage4copyERKS0_ @302
    _ZN6tribft21LeaderElectionMessageC1EPKcs @303
    _ZN6tribft21LeaderElectionMessageC1ERKS0_ @304
    _ZN6tribft21LeaderElectionMessageC2EPKcs @305
    _ZN6tribft21LeaderElectionMessageC2ERKS0_ @306
    _ZN6tribft21LeaderElectionMessageD0Ev @307
    _ZN6tribft21LeaderElectionMessageD1Ev @308
    _ZN6tribft21LeaderElectionMessageD2Ev @309
    _ZN6tribft21LeaderElectionMessageaSERKS0_ @310
    _ZN6tribft21VoteMessageDescriptorC1Ev @311
    _ZN6tribft21VoteMessageDescriptorC2Ev @312
    _ZN6tribft21VoteMessageDescriptorD0Ev @313
    _ZN6tribft21VoteMessageDescriptorD1Ev @314
    _ZN6tribft21VoteMessageDescriptorD2Ev @315
    _ZN6tribft22ReputationQueryMessage12parsimUnpackEPN7omnetpp11cCommBufferE @316
    _ZN6tribft22ReputationQueryMessage15setTargetNodeIDEPKc @317
    _ZN6tribft22ReputationQueryMessage4copyERKS0_ @318
    _ZN6tribft22ReputationQueryMessageC1EPKcs @319
    _ZN6tribft22ReputationQueryMessageC1ERKS0_ @320
    _ZN6tribft22ReputationQueryMessageC2EPKcs @321
    _ZN6tribft22ReputationQueryMessageC2ERKS0_ @322
    _ZN6tribft22ReputationQueryMessageD0Ev @323
    _ZN6tribft22ReputationQueryMessageD1Ev @324
    _ZN6tribft22ReputationQueryMessageD2Ev @325
    _ZN6tribft22ReputationQueryMessageaSERKS0_ @326
    _ZN6tribft23CrossShardCommitMessage12parsimUnpackEPN7omnetpp11cCommBufferE @327
    _ZN6tribft23CrossShardCommitMessage12setCommittedEb @328
    _ZN6tribft23CrossShardCommitMessage4copyERKS0_ @329
    _ZN6tribft23CrossShardCommitMessage7setTxIDEPKc @330
    _ZN6tribft23CrossShardCommitMessageC1EPKcs @331
    _ZN6tribft23CrossShardCommitMessageC1ERKS0_ @332
    _ZN6tribft23CrossShardCommitMessageC2EPKcs @333
    _ZN6tribft23CrossShardCommitMessageC2ERKS0_ @334
    _ZN6tribft23CrossShardCommitMessageD0Ev @335
    _ZN6tribft23CrossShardCommitMessageD1Ev @336
    _ZN6tribft23CrossShardCommitMessageD2Ev @337
    _ZN6tribft23CrossShardCommitMessageaSERKS0_ @338
    _ZN6tribft23DecideMessageDescriptorC1Ev @339
    _ZN6tribft23DecideMessageDescriptorC2Ev @340
    _ZN6tribft23DecideMessageDescriptorD0Ev @341
    _ZN6tribft23DecideMessageDescriptorD1Ev @342
    _ZN6tribft23DecideMessageDescriptorD2Ev @343
    _ZN6tribft23ReputationUpdateMessage11setNewScoreEd @344
    _ZN6tribft23ReputationUpdateMessage12parsimUnpackEPN7omnetpp11cCommBufferE @345
    _ZN6tribft23ReputationUpdateMessage12setEventTypeEi @346
    _ZN6tribft23ReputationUpdateMessage15setTargetNodeIDEPKc @347
    _ZN6tribft23ReputationUpdateMessage4copyERKS0_ @348
    _ZN6tribft23ReputationUpdateMessage9setReasonEPKc @349
    _ZN6tribft23ReputationUpdateMessageC1EPKcs @350
    _ZN6tribft23ReputationUpdateMessageC1ERKS0_ @351
    _ZN6tribft23ReputationUpdateMessageC2EPKcs @352
    _ZN6tribft23ReputationUpdateMessageC2ERKS0_ @353
    _ZN6tribft23ReputationUpdateMessageD0Ev @354
    _ZN6tribft23ReputationUpdateMessageD1Ev @355
    _ZN6tribft23ReputationUpdateMessageD2Ev @356
    _ZN6tribft23ReputationUpdateMessageaSERKS0_ @357
    _ZN6tribft23TriBFTMessageDescriptorC1Ev @358
    _ZN6tribft23TriBFTMessageDescriptorC2Ev @359
    _ZN6tribft23TriBFTMessageDescriptorD0Ev @360
    _ZN6tribft23TriBFTMessageDescriptorD1Ev @361
    _ZN6tribft23TriBFTMessageDescriptorD2Ev @362
    _ZN6tribft25ProposalMessageDescriptorC1Ev @363
    _ZN6tribft25ProposalMessageDescriptorC2Ev @364
    _ZN6tribft25ProposalMessageDescriptorD0Ev @365
    _ZN6tribft25ProposalMessageDescriptorD1Ev @366
    _ZN6tribft25ProposalMessageDescriptorD2Ev @367
    _ZN6tribft25ReputationResponseMessage12parsimUnpackEPN7omnetpp11cCommBufferE @368
    _ZN6tribft25ReputationResponseMessage13setTotalVotesEi @369
    _ZN6tribft25ReputationResponseMessage15setCorrectVotesEi @370
    _ZN6tribft25ReputationResponseMessage15setTargetNodeIDEPKc @371
    _ZN6tribft25ReputationResponseMessage17setTotalProposalsEi @372
    _ZN6tribft25ReputationResponseMessage17setValidProposalsEi @373
    _ZN6tribft25ReputationResponseMessage18setReputationScoreEd @374
    _ZN6tribft25ReputationResponseMessage4copyERKS0_ @375
    _ZN6tribft25ReputationResponseMessageC1EPKcs @376
    _ZN6tribft25ReputationResponseMessageC1ERKS0_ @377
    _ZN6tribft25ReputationResponseMessageC2EPKcs @378
    _ZN6tribft25ReputationResponseMessageC2ERKS0_ @379
    _ZN6tribft25ReputationResponseMessageD0Ev @380
    _ZN6tribft25ReputationResponseMessageD1Ev @381
    _ZN6tribft25ReputationResponseMessageD2Ev @382
    _ZN6tribft25ReputationResponseMessageaSERKS0_ @383
    _ZN6tribft26HeartbeatMessageDescriptorC1Ev @384
    _ZN6tribft26HeartbeatMessageDescriptorC2Ev @385
    _ZN6tribft26HeartbeatMessageDescriptorD0Ev @386
    _ZN6tribft26HeartbeatMessageDescriptorD1Ev @387
    _ZN6tribft26HeartbeatMessageDescriptorD2Ev @388
    _ZN6tribft26ShardJoinRequestDescriptorC1Ev @389
    _ZN6tribft26ShardJoinRequestDescriptorC2Ev @390
    _ZN6tribft26ShardJoinRequestDescriptorD0Ev @391
    _ZN6tribft26ShardJoinRequestDescriptorD1Ev @392
    _ZN6tribft26ShardJoinRequestDescriptorD2Ev @393
    _ZN6tribft27ShardJoinResponseDescriptorC1Ev @394
    _ZN6tribft27ShardJoinResponseDescriptorC2Ev @395
    _ZN6tribft27ShardJoinResponseDescriptorD0Ev @396
    _ZN6tribft27ShardJoinResponseDescriptorD1Ev @397
    _ZN6tribft27ShardJoinResponseDescriptorD2Ev @398
    _ZN6tribft27ShardLeaveMessageDescriptorC1Ev @399
    _ZN6tribft27ShardLeaveMessageDescriptorC2Ev @400
    _ZN6tribft27ShardLeaveMessageDescriptorD0Ev @401
    _ZN6tribft27ShardLeaveMessageDescriptorD1Ev @402
    _ZN6tribft27ShardLeaveMessageDescriptorD2Ev @403
    _ZN6tribft27ViewChangeMessageDescriptorC1Ev @404
    _ZN6tribft27ViewChangeMessageDescriptorC2Ev @405
    _ZN6tribft27ViewChangeMessageDescriptorD0Ev @406
    _ZN6tribft27ViewChangeMessageDescriptorD1Ev @407
    _ZN6tribft27ViewChangeMessageDescriptorD2Ev @408
    _ZN6tribft28ShardUpdateMessageDescriptorC1Ev @409
    _ZN6tribft28ShardUpdateMessageDescriptorC2Ev @410
    _ZN6tribft28ShardUpdateMessageDescriptorD0Ev @411
    _ZN6tribft28ShardUpdateMessageDescriptorD1Ev @412
    _ZN6tribft28ShardUpdateMessageDescriptorD2Ev @413
    _ZN6tribft28TestMinimalMessageDescriptorC1Ev @414
    _ZN6tribft28TestMinimalMessageDescriptorC2Ev @415
    _ZN6tribft28TestMinimalMessageDescriptorD0Ev @416
    _ZN6tribft28TestMinimalMessageDescriptorD1Ev @417
    _ZN6tribft28TestMinimalMessageDescriptorD2Ev @418
    _ZN6tribft28TransactionMessageDescriptorC1Ev @419
    _ZN6tribft28TransactionMessageDescriptorC2Ev @420
    _ZN6tribft28TransactionMessageDescriptorD0Ev @421
    _ZN6tribft28TransactionMessageDescriptorD1Ev @422
    _ZN6tribft28TransactionMessageDescriptorD2Ev @423
    _ZN6tribft29CrossShardTxMessageDescriptorC1Ev @424
    _ZN6tribft29CrossShardTxMessageDescriptorC2Ev @425
    _ZN6tribft29CrossShardTxMessageDescriptorD0Ev @426
    _ZN6tribft29CrossShardTxMessageDescriptorD1Ev @427
    _ZN6tribft29CrossShardTxMessageDescriptorD2Ev @428
    _ZN6tribft29PhaseAdvanceMessageDescriptorC1Ev @429
    _ZN6tribft29PhaseAdvanceMessageDescriptorC2Ev @430
    _ZN6tribft29PhaseAdvanceMessageDescriptorD0Ev @431
    _ZN6tribft29PhaseAdvanceMessageDescriptorD1Ev @432
    _ZN6tribft29PhaseAdvanceMessageDescriptorD2Ev @433
    _ZN6tribft31LeaderElectionMessageDescriptorC1Ev @434
    _ZN6tribft31LeaderElectionMessageDescriptorC2Ev @435
    _ZN6tribft31LeaderElectionMessageDescriptorD0Ev @436
    _ZN6tribft31LeaderElectionMessageDescriptorD1Ev @437
    _ZN6tribft31LeaderElectionMessageDescriptorD2Ev @438
    _ZN6tribft32ReputationQueryMessageDescriptorC1Ev @439
    _ZN6tribft32ReputationQueryMessageDescriptorC2Ev @440
    _ZN6tribft32ReputationQueryMessageDescriptorD0Ev @441
    _ZN6tribft32ReputationQueryMessageDescriptorD1Ev @442
    _ZN6tribft32ReputationQueryMessageDescriptorD2Ev @443
    _ZN6tribft33CrossShardCommitMessageDescriptorC1Ev @444
    _ZN6tribft33CrossShardCommitMessageDescriptorC2Ev @445
    _ZN6tribft33CrossShardCommitMessageDescriptorD0Ev @446
    _ZN6tribft33CrossShardCommitMessageDescriptorD1Ev @447
    _ZN6tribft33CrossShardCommitMessageDescriptorD2Ev @448
    _ZN6tribft33ReputationUpdateMessageDescriptorC1Ev @449
    _ZN6tribft33ReputationUpdateMessageDescriptorC2Ev @450
    _ZN6tribft33ReputationUpdateMessageDescriptorD0Ev @451
    _ZN6tribft33ReputationUpdateMessageDescriptorD1Ev @452
    _ZN6tribft33ReputationUpdateMessageDescriptorD2Ev @453
    _ZN6tribft35ReputationResponseMessageDescriptorC1Ev @454
    _ZN6tribft35ReputationResponseMessageDescriptorC2Ev @455
    _ZN6tribft35ReputationResponseMessageDescriptorD0Ev @456
    _ZN6tribft35ReputationResponseMessageDescriptorD1Ev @457
    _ZN6tribft35ReputationResponseMessageDescriptorD2Ev @458
    _ZN6tribft5BlockC2ERKS0_ @459
    _ZN6tribft5BlockC2Ev @460
    _ZN6tribft5BlockD2Ev @461
    _ZN6tribft5BlockaSERKS0_ @462
    _ZN6tribft8VoteInfoC2ERKS0_ @463
    _ZN6tribft8VoteInfoD2Ev @464
    _ZN6tribft9ShardInfoD2Ev @465
    _ZN6tribft9TriBFTApp10initializeEi @466
    _ZN6tribft9TriBFTApp12sendDecisionERKNS_5BlockE @467
    _ZN6tribft9TriBFTApp12sendProposalERKNS_17ConsensusProposalE @468
    _ZN6tribft9TriBFTApp13handleSelfMsgEPN7omnetpp8cMessageE @469
    _ZN6tribft9TriBFTApp13sendHeartbeatEv @470
    _ZN6tribft9TriBFTApp14onConsensusLogERKNSt3__112basic_stringIcNS1_11char_traitsIcEENS1_9allocatorIcEEEE @471
    _ZN6tribft9TriBFTApp15handleHeartbeatEPNS_16HeartbeatMessageE @472
    _ZN6tribft9TriBFTApp15initializeShardEv @473
    _ZN6tribft9TriBFTApp15onVoteGeneratedERKNS_8VoteInfoE @474
    _ZN6tribft9TriBFTApp15sendShardUpdateEv @475
    _ZN6tribft9TriBFTApp16initializeTimersEv @476
    _ZN6tribft9TriBFTApp16onBlockCommittedERKNS_5BlockE @477
    _ZN6tribft9TriBFTApp16recordStatisticsEv @478
    _ZN6tribft9TriBFTApp16sendPhaseAdvanceERKNSt3__112basic_stringIcNS1_11char_traitsIcEENS1_9allocatorIcEEEENS_14ConsensusPhaseESA_ @479
    _ZN6tribft9TriBFTApp17createTransactionEv @480
    _ZN6tribft9TriBFTApp17handleShardUpdateEPNS_18ShardUpdateMessageE @481
    _ZN6tribft9TriBFTApp17handleVoteMessageEPNS_11VoteMessageE @482
    _ZN6tribft9TriBFTApp19electConsensusGroupEv @483
    _ZN6tribft9TriBFTApp19handleDecideMessageEPNS_13DecideMessageE @484
    _ZN6tribft9TriBFTApp19handleDisguisedVoteEPNS_18TransactionMessageE @485
    _ZN6tribft9TriBFTApp19initializeConsensusEv @486
    _ZN6tribft9TriBFTApp19onProposalGeneratedERKNS_17ConsensusProposalE @487
    _ZN6tribft9TriBFTApp20generateTransactionsEv @488
    _ZN6tribft9TriBFTApp20handleConsensusTimerEv @489
    _ZN6tribft9TriBFTApp20handleHeartbeatTimerEv @490
    _ZN6tribft9TriBFTApp20handlePositionUpdateEPN7omnetpp7cObjectE @491
    _ZN6tribft9TriBFTApp20initializeReputationEv @492
    _ZN6tribft9TriBFTApp20sendShardJoinRequestEv @493
    _ZN6tribft9TriBFTApp21handleProposalMessageEPNS_15ProposalMessageE @494
    _ZN6tribft9TriBFTApp22handleReputationUpdateEPNS_23ReputationUpdateMessageE @495
    _ZN6tribft9TriBFTApp22handleShardJoinRequestEPNS_16ShardJoinRequestE @496
    _ZN6tribft9TriBFTApp23handleDisguisedProposalEPNS_18TransactionMessageE @497
    _ZN6tribft9TriBFTApp23handleShardJoinResponseEPNS_17ShardJoinResponseE @498
    _ZN6tribft9TriBFTApp24handleTransactionMessageEPNS_18TransactionMessageE @499
    _ZN6tribft9TriBFTApp25handlePhaseAdvanceMessageEPNS_19PhaseAdvanceMessageE @500
    _ZN6tribft9TriBFTApp26handleReputationDecayTimerEv @501
    _ZN6tribft9TriBFTApp27handleDisguisedPhaseAdvanceEPNS_18TransactionMessageE @502
    _ZN6tribft9TriBFTApp27handleShardMaintenanceTimerEv @503
    _ZN6tribft9TriBFTApp5onWSAEPN5veins23DemoServiceAdvertismentE @504
    _ZN6tribft9TriBFTApp5onWSMEPN5veins15BaseFrame1609_4E @505
    _ZN6tribft9TriBFTApp6finishEv @506
    _ZN6tribft9TriBFTApp7logInfoERKNSt3__112basic_stringIcNS1_11char_traitsIcEENS1_9allocatorIcEEEE @507
    _ZN6tribft9TriBFTApp8sendVoteERKNS_8VoteInfoE @508
    _ZN6tribft9TriBFTAppD0Ev @509
    _ZN6tribft9TriBFTAppD2Ev @510
    _ZN7omnetpp10cComponent12recordScalarEPKcNS_7SimTimeES2_ @511
    _ZN7omnetpp10cComponent4emitEiPKNS_7cObjectEPS1_ @512
    _ZN7omnetpp10cComponent4emitEicPNS_7cObjectE @513
    _ZN7omnetpp10cComponent4emitEiePNS_7cObjectE @514
    _ZN7omnetpp10cComponent4emitEifPNS_7cObjectE @515
    _ZN7omnetpp10cComponent4emitEihPNS_7cObjectE @516
    _ZN7omnetpp10cComponent4emitEiiPNS_7cObjectE @517
    _ZN7omnetpp10cComponent4emitEijPNS_7cObjectE @518
    _ZN7omnetpp10cComponent4emitEilPNS_7cObjectE @519
    _ZN7omnetpp10cComponent4emitEimPNS_7cObjectE @520
    _ZN7omnetpp10cComponent4emitEisPNS_7cObjectE @521
    _ZN7omnetpp10cComponent4emitEitPNS_7cObjectE @522
    _ZN7omnetpp10cComponent4emitEixPNS_7cObjectE @523
    _ZN7omnetpp10cComponent4emitEiyPNS_7cObjectE @524
    _ZN7omnetpp10cComponent9setRNGMapEsPi @525
    _ZN7omnetpp10cExceptionD2Ev @526
    _ZN7omnetpp10cIListener12subscribedToEPNS_10cComponentEi @527
    _ZN7omnetpp10cIListener16unsubscribedFromEPNS_10cComponentEi @528
    _ZN7omnetpp10fromAnyPtrIN6tribft11VoteMessageEEEPT_NS_7any_ptrE @529
    _ZN7omnetpp10fromAnyPtrIN6tribft13DecideMessageEEEPT_NS_7any_ptrE @530
    _ZN7omnetpp10fromAnyPtrIN6tribft13TriBFTMessageEEEPT_NS_7any_ptrE @531
    _ZN7omnetpp10fromAnyPtrIN6tribft15ProposalMessageEEEPT_NS_7any_ptrE @532
    _ZN7omnetpp10fromAnyPtrIN6tribft16HeartbeatMessageEEEPT_NS_7any_ptrE @533
    _ZN7omnetpp10fromAnyPtrIN6tribft16ShardJoinRequestEEEPT_NS_7any_ptrE @534
    _ZN7omnetpp10fromAnyPtrIN6tribft17ShardJoinResponseEEEPT_NS_7any_ptrE @535
    _ZN7omnetpp10fromAnyPtrIN6tribft17ShardLeaveMessageEEEPT_NS_7any_ptrE @536
    _ZN7omnetpp10fromAnyPtrIN6tribft17ViewChangeMessageEEEPT_NS_7any_ptrE @537
    _ZN7omnetpp10fromAnyPtrIN6tribft18ShardUpdateMessageEEEPT_NS_7any_ptrE @538
    _ZN7omnetpp10fromAnyPtrIN6tribft18TestMinimalMessageEEEPT_NS_7any_ptrE @539
    _ZN7omnetpp10fromAnyPtrIN6tribft18TransactionMessageEEEPT_NS_7any_ptrE @540
    _ZN7omnetpp10fromAnyPtrIN6tribft19CrossShardTxMessageEEEPT_NS_7any_ptrE @541
    _ZN7omnetpp10fromAnyPtrIN6tribft19PhaseAdvanceMessageEEEPT_NS_7any_ptrE @542
    _ZN7omnetpp10fromAnyPtrIN6tribft21LeaderElectionMessageEEEPT_NS_7any_ptrE @543
    _ZN7omnetpp10fromAnyPtrIN6tribft22ReputationQueryMessageEEEPT_NS_7any_ptrE @544
    _ZN7omnetpp10fromAnyPtrIN6tribft23CrossShardCommitMessageEEEPT_NS_7any_ptrE @545
    _ZN7omnetpp10fromAnyPtrIN6tribft23ReputationUpdateMessageEEEPT_NS_7any_ptrE @546
    _ZN7omnetpp10fromAnyPtrIN6tribft25ReputationResponseMessageEEEPT_NS_7any_ptrE @547
    _ZN7omnetpp12cNamedObject14getNamePoolingEv @548
    _ZN7omnetpp13cSimpleModule10sendDirectEPNS_8cMessageENS_7SimTimeES3_PNS_5cGateE @549
    _ZN7omnetpp13cSimpleModule10sendDirectEPNS_8cMessageENS_7SimTimeES3_PNS_7cModuleEPKci @550
    _ZN7omnetpp13cSimpleModule10sendDirectEPNS_8cMessageENS_7SimTimeES3_PNS_7cModuleEi @551
    _ZN7omnetpp13cSimpleModule10sendDirectEPNS_8cMessageEPNS_5cGateE @552
    _ZN7omnetpp13cSimpleModule10sendDirectEPNS_8cMessageEPNS_7cModuleEPKci @553
    _ZN7omnetpp13cSimpleModule10sendDirectEPNS_8cMessageEPNS_7cModuleEi @554
    _ZN7omnetpp13cSimpleModule10sendDirectEPNS_8cMessageERKNS_11SendOptionsEPNS_7cModuleEPKci @555
    _ZN7omnetpp13cSimpleModule10sendDirectEPNS_8cMessageERKNS_11SendOptionsEPNS_7cModuleEi @556
    _ZN7omnetpp13cSimpleModule11sendDelayedEPNS_8cMessageENS_7SimTimeEPKci @557
    _ZN7omnetpp13cSimpleModule11sendDelayedEPNS_8cMessageENS_7SimTimeEPNS_5cGateE @558
    _ZN7omnetpp13cSimpleModule11sendDelayedEPNS_8cMessageENS_7SimTimeEi @559
    _ZN7omnetpp13cSimpleModule4sendEPNS_8cMessageEPKci @560
    _ZN7omnetpp13cSimpleModule4sendEPNS_8cMessageEPNS_5cGateE @561
    _ZN7omnetpp13cSimpleModule4sendEPNS_8cMessageERKNS_11SendOptionsEPKci @562
    _ZN7omnetpp13cSimpleModule4sendEPNS_8cMessageERKNS_11SendOptionsEi @563
    _ZN7omnetpp13cSimpleModule4sendEPNS_8cMessageEi @564
    _ZN7omnetpp14check_and_castIPN6tribft11VoteMessageENS_7cObjectEEET_PT0_ @565
    _ZN7omnetpp14check_and_castIPN6tribft13DecideMessageENS_7cObjectEEET_PT0_ @566
    _ZN7omnetpp14check_and_castIPN6tribft13TriBFTMessageENS_7cObjectEEET_PT0_ @567
    _ZN7omnetpp14check_and_castIPN6tribft15ProposalMessageENS_7cObjectEEET_PT0_ @568
    _ZN7omnetpp14check_and_castIPN6tribft16HeartbeatMessageENS_7cObjectEEET_PT0_ @569
    _ZN7omnetpp14check_and_castIPN6tribft16ShardJoinRequestENS_7cObjectEEET_PT0_ @570
    _ZN7omnetpp14check_and_castIPN6tribft17ShardJoinResponseENS_7cObjectEEET_PT0_ @571
    _ZN7omnetpp14check_and_castIPN6tribft17ShardLeaveMessageENS_7cObjectEEET_PT0_ @572
    _ZN7omnetpp14check_and_castIPN6tribft17ViewChangeMessageENS_7cObjectEEET_PT0_ @573
    _ZN7omnetpp14check_and_castIPN6tribft18ShardUpdateMessageENS_7cObjectEEET_PT0_ @574
    _ZN7omnetpp14check_and_castIPN6tribft18TestMinimalMessageENS_7cObjectEEET_PT0_ @575
    _ZN7omnetpp14check_and_castIPN6tribft18TransactionMessageENS_7cObjectEEET_PT0_ @576
    _ZN7omnetpp14check_and_castIPN6tribft19CrossShardTxMessageENS_7cObjectEEET_PT0_ @577
    _ZN7omnetpp14check_and_castIPN6tribft19PhaseAdvanceMessageENS_7cObjectEEET_PT0_ @578
    _ZN7omnetpp14check_and_castIPN6tribft21LeaderElectionMessageENS_7cObjectEEET_PT0_ @579
    _ZN7omnetpp14check_and_castIPN6tribft22ReputationQueryMessageENS_7cObjectEEET_PT0_ @580
    _ZN7omnetpp14check_and_castIPN6tribft23CrossShardCommitMessageENS_7cObjectEEET_PT0_ @581
    _ZN7omnetpp14check_and_castIPN6tribft23ReputationUpdateMessageENS_7cObjectEEET_PT0_ @582
    _ZN7omnetpp14check_and_castIPN6tribft25ReputationResponseMessageENS_7cObjectEEET_PT0_ @583
    _ZN7omnetpp22check_and_cast_failureIPN6tribft11VoteMessageENS_7cObjectEEEvPT0_T_ @584
    _ZN7omnetpp22check_and_cast_failureIPN6tribft13DecideMessageENS_7cObjectEEEvPT0_T_ @585
    _ZN7omnetpp22check_and_cast_failureIPN6tribft13TriBFTMessageENS_7cObjectEEEvPT0_T_ @586
    _ZN7omnetpp22check_and_cast_failureIPN6tribft15ProposalMessageENS_7cObjectEEEvPT0_T_ @587
    _ZN7omnetpp22check_and_cast_failureIPN6tribft16HeartbeatMessageENS_7cObjectEEEvPT0_T_ @588
    _ZN7omnetpp22check_and_cast_failureIPN6tribft16ShardJoinRequestENS_7cObjectEEEvPT0_T_ @589
    _ZN7omnetpp22check_and_cast_failureIPN6tribft17ShardJoinResponseENS_7cObjectEEEvPT0_T_ @590
    _ZN7omnetpp22check_and_cast_failureIPN6tribft17ShardLeaveMessageENS_7cObjectEEEvPT0_T_ @591
    _ZN7omnetpp22check_and_cast_failureIPN6tribft17ViewChangeMessageENS_7cObjectEEEvPT0_T_ @592
    _ZN7omnetpp22check_and_cast_failureIPN6tribft18ShardUpdateMessageENS_7cObjectEEEvPT0_T_ @593
    _ZN7omnetpp22check_and_cast_failureIPN6tribft18TestMinimalMessageENS_7cObjectEEEvPT0_T_ @594
    _ZN7omnetpp22check_and_cast_failureIPN6tribft18TransactionMessageENS_7cObjectEEEvPT0_T_ @595
    _ZN7omnetpp22check_and_cast_failureIPN6tribft19CrossShardTxMessageENS_7cObjectEEEvPT0_T_ @596
    _ZN7omnetpp22check_and_cast_failureIPN6tribft19PhaseAdvanceMessageENS_7cObjectEEEvPT0_T_ @597
    _ZN7omnetpp22check_and_cast_failureIPN6tribft21LeaderElectionMessageENS_7cObjectEEEvPT0_T_ @598
    _ZN7omnetpp22check_and_cast_failureIPN6tribft22ReputationQueryMessageENS_7cObjectEEEvPT0_T_ @599
    _ZN7omnetpp22check_and_cast_failureIPN6tribft23CrossShardCommitMessageENS_7cObjectEEEvPT0_T_ @600
    _ZN7omnetpp22check_and_cast_failureIPN6tribft23ReputationUpdateMessageENS_7cObjectEEEvPT0_T_ @601
    _ZN7omnetpp22check_and_cast_failureIPN6tribft25ReputationResponseMessageENS_7cObjectEEEvPT0_T_ @602
    _ZN7omnetpp23cNoncopyableOwnedObject12parsimUnpackEPNS_11cCommBufferE @603
    _ZN7omnetpp7cModule27setBuiltinAnimationsAllowedEb @604
    _ZN7omnetpp7cPacket11setBitErrorEb @605
    _ZN7omnetpp8cMessage10getParListEv @606
    _ZN7omnetpp8cMessage12removeObjectEPKc @607
    _ZN7omnetpp8cMessage12removeObjectEPNS_7cObjectE @608
    _ZN7omnetpp8cMessage6addParEPKc @609
    _ZN7omnetpp8cMessage6addParEPNS_7cMsgParE @610
    _ZN7omnetpp8cMessage9addObjectEPNS_7cObjectE @611
    _ZN7omnetpp8cMessage9getObjectEPKc @612
    _ZN7omnetpp8cMessage9hasObjectEPKc @613
    _ZN7omnetpplsERNSt3__113basic_ostreamIcNS0_11char_traitsIcEEEERKNS_7SimTimeE @614
    _ZNK5veins10BaseModule13numInitStagesEv @615
    _ZNK5veins13BaseApplLayer10myApplAddrEv @616
    _ZNK5veins5Coord3strEv @617
    _ZNK6tribft10VRMManager10isReliableERKNSt3__112basic_stringIcNS1_11char_traitsIcEENS1_9allocatorIcEEEE @618
    _ZNK6tribft10VRMManager11getTopNodesEi @619
    _ZNK6tribft10VRMManager12isRegisteredERKNSt3__112basic_stringIcNS1_11char_traitsIcEENS1_9allocatorIcEEEE @620
    _ZNK6tribft10VRMManager13getReputationERKNSt3__112basic_stringIcNS1_11char_traitsIcEENS1_9allocatorIcEEEE @621
    _ZNK6tribft10VRMManager13getStatisticsEv @622
    _ZNK6tribft10VRMManager14getEventWeightENS_15ReputationEventE @623
    _ZNK6tribft10VRMManager15clampReputationEd @624
    _ZNK6tribft10VRMManager20getAverageReputationEv @625
    _ZNK6tribft10VRMManager20getReliableNodeCountEv @626
    _ZNK6tribft10VRMManager9getRecordERKNSt3__112basic_stringIcNS1_11char_traitsIcEENS1_9allocatorIcEEEE @627
    _ZNK6tribft11VRFSelector10selectTopNERKNSt3__16vectorINS1_12basic_stringIcNS1_11char_traitsIcEENS1_9allocatorIcEEEENS6_IS8_EEEEiy @628
    _ZNK6tribft11VRFSelector11getNodeRoleERKNSt3__112basic_stringIcNS1_11char_traitsIcEENS1_9allocatorIcEEEE @629
    _ZNK6tribft11VRFSelector12calculateVRFERKNSt3__112basic_stringIcNS1_11char_traitsIcEENS1_9allocatorIcEEEEy @630
    _ZNK6tribft11VRFSelector15isRedundantNodeERKNSt3__112basic_stringIcNS1_11char_traitsIcEENS1_9allocatorIcEEEE @631
    _ZNK6tribft11VRFSelector15needsReelectionEi @632
    _ZNK6tribft11VRFSelector18isInConsensusGroupERKNSt3__112basic_stringIcNS1_11char_traitsIcEENS1_9allocatorIcEEEE @633
    _ZNK6tribft11VRFSelector3logERKNSt3__112basic_stringIcNS1_11char_traitsIcEENS1_9allocatorIcEEEE @634
    _ZNK6tribft11VoteMessage10getApproveEv @635
    _ZNK6tribft11VoteMessage10parsimPackEPN7omnetpp11cCommBufferE @636
    _ZNK6tribft11VoteMessage12getSignatureEv @637
    _ZNK6tribft11VoteMessage13getProposalIDEv @638
    _ZNK6tribft11VoteMessage3dupEv @639
    _ZNK6tribft11VoteMessage8getPhaseEv @640
    _ZNK6tribft13DecideMessage10parsimPackEPN7omnetpp11cCommBufferE @641
    _ZNK6tribft13DecideMessage12getBlockHashEv @642
    _ZNK6tribft13DecideMessage12getCommittedEv @643
    _ZNK6tribft13DecideMessage13getProposalIDEv @644
    _ZNK6tribft13DecideMessage14getBlockHeightEv @645
    _ZNK6tribft13DecideMessage3dupEv @646
    _ZNK6tribft13TriBFTMessage10getShardIDEv @647
    _ZNK6tribft13TriBFTMessage10parsimPackEPN7omnetpp11cCommBufferE @648
    _ZNK6tribft13TriBFTMessage11getSenderIDEv @649
    _ZNK6tribft13TriBFTMessage12getTimestampEv @650
    _ZNK6tribft13TriBFTMessage13getViewNumberEv @651
    _ZNK6tribft13TriBFTMessage14getMessageTypeEv @652
    _ZNK6tribft13TriBFTMessage3dupEv @653
    _ZNK6tribft14HotStuffEngine10canProposeEv @654
    _ZNK6tribft14HotStuffEngine12getHighestQCEv @655
    _ZNK6tribft14HotStuffEngine12isInProgressEv @656
    _ZNK6tribft14HotStuffEngine13getQuorumSizeEv @657
    _ZNK6tribft14HotStuffEngine18getCurrentProposalEv @658
    _ZNK6tribft14LowRepVerifier15isEventVerifiedERKNSt3__112basic_stringIcNS1_11char_traitsIcEENS1_9allocatorIcEEEE @659
    _ZNK6tribft14LowRepVerifier21getVerificationResultERKNSt3__112basic_stringIcNS1_11char_traitsIcEENS1_9allocatorIcEEEE @660
    _ZNK6tribft14LowRepVerifier26checkVerificationThresholdERKNS_12PendingEventE @661
    _ZNK6tribft14LowRepVerifier3logERKNSt3__112basic_stringIcNS1_11char_traitsIcEENS1_9allocatorIcEEEE @662
    _ZNK6tribft15LightweightSync12getFullBlockEy @663
    _ZNK6tribft15LightweightSync12hasFullBlockEy @664
    _ZNK6tribft15LightweightSync15getStorageStatsEv @665
    _ZNK6tribft15LightweightSync17verifyTransactionEyRKNSt3__112basic_stringIcNS1_11char_traitsIcEENS1_9allocatorIcEEEERKNS_11MerkleProofE @666
    _ZNK6tribft15LightweightSync19validateHeaderChainERKNS_11BlockHeaderE @667
    _ZNK6tribft15LightweightSync3logERKNSt3__112basic_stringIcNS1_11char_traitsIcEENS1_9allocatorIcEEEE @668
    _ZNK6tribft15LightweightSync9getHeaderEy @669
    _ZNK6tribft15LightweightSync9hasHeaderEy @670
    _ZNK6tribft15ProposalMessage10getTxCountEv @671
    _ZNK6tribft15ProposalMessage10parsimPackEPN7omnetpp11cCommBufferE @672
    _ZNK6tribft15ProposalMessage11getLeaderIDEv @673
    _ZNK6tribft15ProposalMessage12getBlockHashEv @674
    _ZNK6tribft15ProposalMessage13getProposalIDEv @675
    _ZNK6tribft15ProposalMessage14getBlockHeightEv @676
    _ZNK6tribft15ProposalMessage3dupEv @677
    _ZNK6tribft16HeartbeatMessage10parsimPackEPN7omnetpp11cCommBufferE @678
    _ZNK6tribft16HeartbeatMessage14getCurrentLoadEv @679
    _ZNK6tribft16HeartbeatMessage16getActiveTxCountEv @680
    _ZNK6tribft16HeartbeatMessage3dupEv @681
    _ZNK6tribft16ShardJoinRequest10parsimPackEPN7omnetpp11cCommBufferE @682
    _ZNK6tribft16ShardJoinRequest11getLatitudeEv @683
    _ZNK6tribft16ShardJoinRequest12getLongitudeEv @684
    _ZNK6tribft16ShardJoinRequest18getReputationScoreEv @685
    _ZNK6tribft16ShardJoinRequest3dupEv @686
    _ZNK6tribft17ShardJoinResponse10parsimPackEPN7omnetpp11cCommBufferE @687
    _ZNK6tribft17ShardJoinResponse11getAcceptedEv @688
    _ZNK6tribft17ShardJoinResponse11getLeaderIDEv @689
    _ZNK6tribft17ShardJoinResponse14getMemberCountEv @690
    _ZNK6tribft17ShardJoinResponse18getAssignedShardIDEv @691
    _ZNK6tribft17ShardJoinResponse3dupEv @692
    _ZNK6tribft17ShardLeaveMessage10parsimPackEPN7omnetpp11cCommBufferE @693
    _ZNK6tribft17ShardLeaveMessage16getLeavingNodeIDEv @694
    _ZNK6tribft17ShardLeaveMessage3dupEv @695
    _ZNK6tribft17ShardLeaveMessage9getReasonEv @696
    _ZNK6tribft17ViewChangeMessage10parsimPackEPN7omnetpp11cCommBufferE @697
    _ZNK6tribft17ViewChangeMessage14getNewLeaderIDEv @698
    _ZNK6tribft17ViewChangeMessage16getNewViewNumberEv @699
    _ZNK6tribft17ViewChangeMessage3dupEv @700
    _ZNK6tribft17ViewChangeMessage9getReasonEv @701
    _ZNK6tribft18ShardUpdateMessage10parsimPackEPN7omnetpp11cCommBufferE @702
    _ZNK6tribft18ShardUpdateMessage11getLeaderIDEv @703
    _ZNK6tribft18ShardUpdateMessage12getCenterLatEv @704
    _ZNK6tribft18ShardUpdateMessage12getCenterLonEv @705
    _ZNK6tribft18ShardUpdateMessage13getShardLevelEv @706
    _ZNK6tribft18ShardUpdateMessage14getMemberCountEv @707
    _ZNK6tribft18ShardUpdateMessage3dupEv @708
    _ZNK6tribft18ShardUpdateMessage9getRadiusEv @709
    _ZNK6tribft18TestMinimalMessage10parsimPackEPN7omnetpp11cCommBufferE @710
    _ZNK6tribft18TestMinimalMessage12getTestFieldEv @711
    _ZNK6tribft18TestMinimalMessage3dupEv @712
    _ZNK6tribft18TransactionMessage10parsimPackEPN7omnetpp11cCommBufferE @713
    _ZNK6tribft18TransactionMessage11getHopCountEv @714
    _ZNK6tribft18TransactionMessage16getTargetShardIdEv @715
    _ZNK6tribft18TransactionMessage20getActualMessageTypeEv @716
    _ZNK6tribft18TransactionMessage25getSenderDistanceToLeaderEv @717
    _ZNK6tribft18TransactionMessage3dupEv @718
    _ZNK6tribft18TransactionMessage7getTxIDEv @719
    _ZNK6tribft18TransactionMessage9getTxDataEv @720
    _ZNK6tribft19CrossShardTxMessage10parsimPackEPN7omnetpp11cCommBufferE @721
    _ZNK6tribft19CrossShardTxMessage16getSourceShardIDEv @722
    _ZNK6tribft19CrossShardTxMessage16getTargetShardIDEv @723
    _ZNK6tribft19CrossShardTxMessage3dupEv @724
    _ZNK6tribft19CrossShardTxMessage7getTxIDEv @725
    _ZNK6tribft19CrossShardTxMessage9getTxDataEv @726
    _ZNK6tribft19PhaseAdvanceMessage10getToPhaseEv @727
    _ZNK6tribft19PhaseAdvanceMessage10parsimPackEPN7omnetpp11cCommBufferE @728
    _ZNK6tribft19PhaseAdvanceMessage12getFromPhaseEv @729
    _ZNK6tribft19PhaseAdvanceMessage13getProposalIDEv @730
    _ZNK6tribft19PhaseAdvanceMessage3dupEv @731
    _ZNK6tribft20RegionalShardManager11getNodeRoleERKNSt3__112basic_stringIcNS1_11char_traitsIcEENS1_9allocatorIcEEEEi @732
    _ZNK6tribft20RegionalShardManager12getAllShardsEv @733
    _ZNK6tribft20RegionalShardManager12getNodeShardERKNSt3__112basic_stringIcNS1_11char_traitsIcEENS1_9allocatorIcEEEE @734
    _ZNK6tribft20RegionalShardManager12getShardInfoEi @735
    _ZNK6tribft20RegionalShardManager13isShardLeaderERKNSt3__112basic_stringIcNS1_11char_traitsIcEENS1_9allocatorIcEEEEi @736
    _ZNK6tribft20RegionalShardManager14getShardLeaderEi @737
    _ZNK6tribft20RegionalShardManager15canAcceptMemberEi @738
    _ZNK6tribft20RegionalShardManager15getNodeLocationERKNSt3__112basic_stringIcNS1_11char_traitsIcEENS1_9allocatorIcEEEE @739
    _ZNK6tribft20RegionalShardManager16findNearestShardERKNS_8GeoCoordE @740
    _ZNK6tribft20RegionalShardManager16shouldMergeShardEi @741
    _ZNK6tribft20RegionalShardManager16shouldSplitShardEi @742
    _ZNK6tribft20RegionalShardManager18isInConsensusGroupERKNSt3__112basic_stringIcNS1_11char_traitsIcEENS1_9allocatorIcEEEEi @743
    _ZNK6tribft20RegionalShardManager19calculateSplitPointERKNS_9ShardInfoE @744
    _ZNK6tribft20RegionalShardManager19getShardForLocationERKNS_8GeoCoordE @745
    _ZNK6tribft20RegionalShardManager24getCurrentConsensusGroupEi @746
    _ZNK6tribft21LeaderElectionMessage10parsimPackEPN7omnetpp11cCommBufferE @747
    _ZNK6tribft21LeaderElectionMessage12getVoteCountEv @748
    _ZNK6tribft21LeaderElectionMessage14getCandidateIDEv @749
    _ZNK6tribft21LeaderElectionMessage18getReputationScoreEv @750
    _ZNK6tribft21LeaderElectionMessage3dupEv @751
    _ZNK6tribft21VoteMessageDescriptor11doesSupportEPN7omnetpp7cObjectE @752
    _ZNK6tribft21VoteMessageDescriptor11getPropertyEPKc @753
    _ZNK6tribft21VoteMessageDescriptor12getFieldNameEi @754
    _ZNK6tribft21VoteMessageDescriptor13getFieldCountEv @755
    _ZNK6tribft21VoteMessageDescriptor13getFieldValueEN7omnetpp7any_ptrEii @756
    _ZNK6tribft21VoteMessageDescriptor13setFieldValueEN7omnetpp7any_ptrEiiRKNS1_6cValueE @757
    _ZNK6tribft21VoteMessageDescriptor16getFieldPropertyEiPKc @758
    _ZNK6tribft21VoteMessageDescriptor16getPropertyNamesEv @759
    _ZNK6tribft21VoteMessageDescriptor17getFieldArraySizeEN7omnetpp7any_ptrEi @760
    _ZNK6tribft21VoteMessageDescriptor17getFieldTypeFlagsEi @761
    _ZNK6tribft21VoteMessageDescriptor17setFieldArraySizeEN7omnetpp7any_ptrEii @762
    _ZNK6tribft21VoteMessageDescriptor18getFieldStructNameEi @763
    _ZNK6tribft21VoteMessageDescriptor18getFieldTypeStringEi @764
    _ZNK6tribft21VoteMessageDescriptor21getFieldPropertyNamesEi @765
    _ZNK6tribft21VoteMessageDescriptor21getFieldValueAsStringEN7omnetpp7any_ptrEii @766
    _ZNK6tribft21VoteMessageDescriptor21setFieldValueAsStringEN7omnetpp7any_ptrEiiPKc @767
    _ZNK6tribft21VoteMessageDescriptor25getFieldDynamicTypeStringEN7omnetpp7any_ptrEii @768
    _ZNK6tribft21VoteMessageDescriptor26getFieldStructValuePointerEN7omnetpp7any_ptrEii @769
    _ZNK6tribft21VoteMessageDescriptor26setFieldStructValuePointerEN7omnetpp7any_ptrEiiS2_ @770
    _ZNK6tribft21VoteMessageDescriptor9findFieldEPKc @771
    _ZNK6tribft22ReputationQueryMessage10parsimPackEPN7omnetpp11cCommBufferE @772
    _ZNK6tribft22ReputationQueryMessage15getTargetNodeIDEv @773
    _ZNK6tribft22ReputationQueryMessage3dupEv @774
    _ZNK6tribft23CrossShardCommitMessage10parsimPackEPN7omnetpp11cCommBufferE @775
    _ZNK6tribft23CrossShardCommitMessage12getCommittedEv @776
    _ZNK6tribft23CrossShardCommitMessage3dupEv @777
    _ZNK6tribft23CrossShardCommitMessage7getTxIDEv @778
    _ZNK6tribft23DecideMessageDescriptor11doesSupportEPN7omnetpp7cObjectE @779
    _ZNK6tribft23DecideMessageDescriptor11getPropertyEPKc @780
    _ZNK6tribft23DecideMessageDescriptor12getFieldNameEi @781
    _ZNK6tribft23DecideMessageDescriptor13getFieldCountEv @782
    _ZNK6tribft23DecideMessageDescriptor13getFieldValueEN7omnetpp7any_ptrEii @783
    _ZNK6tribft23DecideMessageDescriptor13setFieldValueEN7omnetpp7any_ptrEiiRKNS1_6cValueE @784
    _ZNK6tribft23DecideMessageDescriptor16getFieldPropertyEiPKc @785
    _ZNK6tribft23DecideMessageDescriptor16getPropertyNamesEv @786
    _ZNK6tribft23DecideMessageDescriptor17getFieldArraySizeEN7omnetpp7any_ptrEi @787
    _ZNK6tribft23DecideMessageDescriptor17getFieldTypeFlagsEi @788
    _ZNK6tribft23DecideMessageDescriptor17setFieldArraySizeEN7omnetpp7any_ptrEii @789
    _ZNK6tribft23DecideMessageDescriptor18getFieldStructNameEi @790
    _ZNK6tribft23DecideMessageDescriptor18getFieldTypeStringEi @791
    _ZNK6tribft23DecideMessageDescriptor21getFieldPropertyNamesEi @792
    _ZNK6tribft23DecideMessageDescriptor21getFieldValueAsStringEN7omnetpp7any_ptrEii @793
    _ZNK6tribft23DecideMessageDescriptor21setFieldValueAsStringEN7omnetpp7any_ptrEiiPKc @794
    _ZNK6tribft23DecideMessageDescriptor25getFieldDynamicTypeStringEN7omnetpp7any_ptrEii @795
    _ZNK6tribft23DecideMessageDescriptor26getFieldStructValuePointerEN7omnetpp7any_ptrEii @796
    _ZNK6tribft23DecideMessageDescriptor26setFieldStructValuePointerEN7omnetpp7any_ptrEiiS2_ @797
    _ZNK6tribft23DecideMessageDescriptor9findFieldEPKc @798
    _ZNK6tribft23ReputationUpdateMessage10parsimPackEPN7omnetpp11cCommBufferE @799
    _ZNK6tribft23ReputationUpdateMessage11getNewScoreEv @800
    _ZNK6tribft23ReputationUpdateMessage12getEventTypeEv @801
    _ZNK6tribft23ReputationUpdateMessage15getTargetNodeIDEv @802
    _ZNK6tribft23ReputationUpdateMessage3dupEv @803
    _ZNK6tribft23ReputationUpdateMessage9getReasonEv @804
    _ZNK6tribft23TriBFTMessageDescriptor11doesSupportEPN7omnetpp7cObjectE @805
    _ZNK6tribft23TriBFTMessageDescriptor11getPropertyEPKc @806
    _ZNK6tribft23TriBFTMessageDescriptor12getFieldNameEi @807
    _ZNK6tribft23TriBFTMessageDescriptor13getFieldCountEv @808
    _ZNK6tribft23TriBFTMessageDescriptor13getFieldValueEN7omnetpp7any_ptrEii @809
    _ZNK6tribft23TriBFTMessageDescriptor13setFieldValueEN7omnetpp7any_ptrEiiRKNS1_6cValueE @810
    _ZNK6tribft23TriBFTMessageDescriptor16getFieldPropertyEiPKc @811
    _ZNK6tribft23TriBFTMessageDescriptor16getPropertyNamesEv @812
    _ZNK6tribft23TriBFTMessageDescriptor17getFieldArraySizeEN7omnetpp7any_ptrEi @813
    _ZNK6tribft23TriBFTMessageDescriptor17getFieldTypeFlagsEi @814
    _ZNK6tribft23TriBFTMessageDescriptor17setFieldArraySizeEN7omnetpp7any_ptrEii @815
    _ZNK6tribft23TriBFTMessageDescriptor18getFieldStructNameEi @816
    _ZNK6tribft23TriBFTMessageDescriptor18getFieldTypeStringEi @817
    _ZNK6tribft23TriBFTMessageDescriptor21getFieldPropertyNamesEi @818
    _ZNK6tribft23TriBFTMessageDescriptor21getFieldValueAsStringEN7omnetpp7any_ptrEii @819
    _ZNK6tribft23TriBFTMessageDescriptor21setFieldValueAsStringEN7omnetpp7any_ptrEiiPKc @820
    _ZNK6tribft23TriBFTMessageDescriptor25getFieldDynamicTypeStringEN7omnetpp7any_ptrEii @821
    _ZNK6tribft23TriBFTMessageDescriptor26getFieldStructValuePointerEN7omnetpp7any_ptrEii @822
    _ZNK6tribft23TriBFTMessageDescriptor26setFieldStructValuePointerEN7omnetpp7any_ptrEiiS2_ @823
    _ZNK6tribft23TriBFTMessageDescriptor9findFieldEPKc @824
    _ZNK6tribft25ProposalMessageDescriptor11doesSupportEPN7omnetpp7cObjectE @825
    _ZNK6tribft25ProposalMessageDescriptor11getPropertyEPKc @826
    _ZNK6tribft25ProposalMessageDescriptor12getFieldNameEi @827
    _ZNK6tribft25ProposalMessageDescriptor13getFieldCountEv @828
    _ZNK6tribft25ProposalMessageDescriptor13getFieldValueEN7omnetpp7any_ptrEii @829
    _ZNK6tribft25ProposalMessageDescriptor13setFieldValueEN7omnetpp7any_ptrEiiRKNS1_6cValueE @830
    _ZNK6tribft25ProposalMessageDescriptor16getFieldPropertyEiPKc @831
    _ZNK6tribft25ProposalMessageDescriptor16getPropertyNamesEv @832
    _ZNK6tribft25ProposalMessageDescriptor17getFieldArraySizeEN7omnetpp7any_ptrEi @833
    _ZNK6tribft25ProposalMessageDescriptor17getFieldTypeFlagsEi @834
    _ZNK6tribft25ProposalMessageDescriptor17setFieldArraySizeEN7omnetpp7any_ptrEii @835
    _ZNK6tribft25ProposalMessageDescriptor18getFieldStructNameEi @836
    _ZNK6tribft25ProposalMessageDescriptor18getFieldTypeStringEi @837
    _ZNK6tribft25ProposalMessageDescriptor21getFieldPropertyNamesEi @838
    _ZNK6tribft25ProposalMessageDescriptor21getFieldValueAsStringEN7omnetpp7any_ptrEii @839
    _ZNK6tribft25ProposalMessageDescriptor21setFieldValueAsStringEN7omnetpp7any_ptrEiiPKc @840
    _ZNK6tribft25ProposalMessageDescriptor25getFieldDynamicTypeStringEN7omnetpp7any_ptrEii @841
    _ZNK6tribft25ProposalMessageDescriptor26getFieldStructValuePointerEN7omnetpp7any_ptrEii @842
    _ZNK6tribft25ProposalMessageDescriptor26setFieldStructValuePointerEN7omnetpp7any_ptrEiiS2_ @843
    _ZNK6tribft25ProposalMessageDescriptor9findFieldEPKc @844
    _ZNK6tribft25ReputationResponseMessage10parsimPackEPN7omnetpp11cCommBufferE @845
    _ZNK6tribft25ReputationResponseMessage13getTotalVotesEv @846
    _ZNK6tribft25ReputationResponseMessage15getCorrectVotesEv @847
    _ZNK6tribft25ReputationResponseMessage15getTargetNodeIDEv @848
    _ZNK6tribft25ReputationResponseMessage17getTotalProposalsEv @849
    _ZNK6tribft25ReputationResponseMessage17getValidProposalsEv @850
    _ZNK6tribft25ReputationResponseMessage18getReputationScoreEv @851
    _ZNK6tribft25ReputationResponseMessage3dupEv @852
    _ZNK6tribft26HeartbeatMessageDescriptor11doesSupportEPN7omnetpp7cObjectE @853
    _ZNK6tribft26HeartbeatMessageDescriptor11getPropertyEPKc @854
    _ZNK6tribft26HeartbeatMessageDescriptor12getFieldNameEi @855
    _ZNK6tribft26HeartbeatMessageDescriptor13getFieldCountEv @856
    _ZNK6tribft26HeartbeatMessageDescriptor13getFieldValueEN7omnetpp7any_ptrEii @857
    _ZNK6tribft26HeartbeatMessageDescriptor13setFieldValueEN7omnetpp7any_ptrEiiRKNS1_6cValueE @858
    _ZNK6tribft26HeartbeatMessageDescriptor16getFieldPropertyEiPKc @859
    _ZNK6tribft26HeartbeatMessageDescriptor16getPropertyNamesEv @860
    _ZNK6tribft26HeartbeatMessageDescriptor17getFieldArraySizeEN7omnetpp7any_ptrEi @861
    _ZNK6tribft26HeartbeatMessageDescriptor17getFieldTypeFlagsEi @862
    _ZNK6tribft26HeartbeatMessageDescriptor17setFieldArraySizeEN7omnetpp7any_ptrEii @863
    _ZNK6tribft26HeartbeatMessageDescriptor18getFieldStructNameEi @864
    _ZNK6tribft26HeartbeatMessageDescriptor18getFieldTypeStringEi @865
    _ZNK6tribft26HeartbeatMessageDescriptor21getFieldPropertyNamesEi @866
    _ZNK6tribft26HeartbeatMessageDescriptor21getFieldValueAsStringEN7omnetpp7any_ptrEii @867
    _ZNK6tribft26HeartbeatMessageDescriptor21setFieldValueAsStringEN7omnetpp7any_ptrEiiPKc @868
    _ZNK6tribft26HeartbeatMessageDescriptor25getFieldDynamicTypeStringEN7omnetpp7any_ptrEii @869
    _ZNK6tribft26HeartbeatMessageDescriptor26getFieldStructValuePointerEN7omnetpp7any_ptrEii @870
    _ZNK6tribft26HeartbeatMessageDescriptor26setFieldStructValuePointerEN7omnetpp7any_ptrEiiS2_ @871
    _ZNK6tribft26HeartbeatMessageDescriptor9findFieldEPKc @872
    _ZNK6tribft26ShardJoinRequestDescriptor11doesSupportEPN7omnetpp7cObjectE @873
    _ZNK6tribft26ShardJoinRequestDescriptor11getPropertyEPKc @874
    _ZNK6tribft26ShardJoinRequestDescriptor12getFieldNameEi @875
    _ZNK6tribft26ShardJoinRequestDescriptor13getFieldCountEv @876
    _ZNK6tribft26ShardJoinRequestDescriptor13getFieldValueEN7omnetpp7any_ptrEii @877
    _ZNK6tribft26ShardJoinRequestDescriptor13setFieldValueEN7omnetpp7any_ptrEiiRKNS1_6cValueE @878
    _ZNK6tribft26ShardJoinRequestDescriptor16getFieldPropertyEiPKc @879
    _ZNK6tribft26ShardJoinRequestDescriptor16getPropertyNamesEv @880
    _ZNK6tribft26ShardJoinRequestDescriptor17getFieldArraySizeEN7omnetpp7any_ptrEi @881
    _ZNK6tribft26ShardJoinRequestDescriptor17getFieldTypeFlagsEi @882
    _ZNK6tribft26ShardJoinRequestDescriptor17setFieldArraySizeEN7omnetpp7any_ptrEii @883
    _ZNK6tribft26ShardJoinRequestDescriptor18getFieldStructNameEi @884
    _ZNK6tribft26ShardJoinRequestDescriptor18getFieldTypeStringEi @885
    _ZNK6tribft26ShardJoinRequestDescriptor21getFieldPropertyNamesEi @886
    _ZNK6tribft26ShardJoinRequestDescriptor21getFieldValueAsStringEN7omnetpp7any_ptrEii @887
    _ZNK6tribft26ShardJoinRequestDescriptor21setFieldValueAsStringEN7omnetpp7any_ptrEiiPKc @888
    _ZNK6tribft26ShardJoinRequestDescriptor25getFieldDynamicTypeStringEN7omnetpp7any_ptrEii @889
    _ZNK6tribft26ShardJoinRequestDescriptor26getFieldStructValuePointerEN7omnetpp7any_ptrEii @890
    _ZNK6tribft26ShardJoinRequestDescriptor26setFieldStructValuePointerEN7omnetpp7any_ptrEiiS2_ @891
    _ZNK6tribft26ShardJoinRequestDescriptor9findFieldEPKc @892
    _ZNK6tribft27ShardJoinResponseDescriptor11doesSupportEPN7omnetpp7cObjectE @893
    _ZNK6tribft27ShardJoinResponseDescriptor11getPropertyEPKc @894
    _ZNK6tribft27ShardJoinResponseDescriptor12getFieldNameEi @895
    _ZNK6tribft27ShardJoinResponseDescriptor13getFieldCountEv @896
    _ZNK6tribft27ShardJoinResponseDescriptor13getFieldValueEN7omnetpp7any_ptrEii @897
    _ZNK6tribft27ShardJoinResponseDescriptor13setFieldValueEN7omnetpp7any_ptrEiiRKNS1_6cValueE @898
    _ZNK6tribft27ShardJoinResponseDescriptor16getFieldPropertyEiPKc @899
    _ZNK6tribft27ShardJoinResponseDescriptor16getPropertyNamesEv @900
    _ZNK6tribft27ShardJoinResponseDescriptor17getFieldArraySizeEN7omnetpp7any_ptrEi @901
    _ZNK6tribft27ShardJoinResponseDescriptor17getFieldTypeFlagsEi @902
    _ZNK6tribft27ShardJoinResponseDescriptor17setFieldArraySizeEN7omnetpp7any_ptrEii @903
    _ZNK6tribft27ShardJoinResponseDescriptor18getFieldStructNameEi @904
    _ZNK6tribft27ShardJoinResponseDescriptor18getFieldTypeStringEi @905
    _ZNK6tribft27ShardJoinResponseDescriptor21getFieldPropertyNamesEi @906
    _ZNK6tribft27ShardJoinResponseDescriptor21getFieldValueAsStringEN7omnetpp7any_ptrEii @907
    _ZNK6tribft27ShardJoinResponseDescriptor21setFieldValueAsStringEN7omnetpp7any_ptrEiiPKc @908
    _ZNK6tribft27ShardJoinResponseDescriptor25getFieldDynamicTypeStringEN7omnetpp7any_ptrEii @909
    _ZNK6tribft27ShardJoinResponseDescriptor26getFieldStructValuePointerEN7omnetpp7any_ptrEii @910
    _ZNK6tribft27ShardJoinResponseDescriptor26setFieldStructValuePointerEN7omnetpp7any_ptrEiiS2_ @911
    _ZNK6tribft27ShardJoinResponseDescriptor9findFieldEPKc @912
    _ZNK6tribft27ShardLeaveMessageDescriptor11doesSupportEPN7omnetpp7cObjectE @913
    _ZNK6tribft27ShardLeaveMessageDescriptor11getPropertyEPKc @914
    _ZNK6tribft27ShardLeaveMessageDescriptor12getFieldNameEi @915
    _ZNK6tribft27ShardLeaveMessageDescriptor13getFieldCountEv @916
    _ZNK6tribft27ShardLeaveMessageDescriptor13getFieldValueEN7omnetpp7any_ptrEii @917
    _ZNK6tribft27ShardLeaveMessageDescriptor13setFieldValueEN7omnetpp7any_ptrEiiRKNS1_6cValueE @918
    _ZNK6tribft27ShardLeaveMessageDescriptor16getFieldPropertyEiPKc @919
    _ZNK6tribft27ShardLeaveMessageDescriptor16getPropertyNamesEv @920
    _ZNK6tribft27ShardLeaveMessageDescriptor17getFieldArraySizeEN7omnetpp7any_ptrEi @921
    _ZNK6tribft27ShardLeaveMessageDescriptor17getFieldTypeFlagsEi @922
    _ZNK6tribft27ShardLeaveMessageDescriptor17setFieldArraySizeEN7omnetpp7any_ptrEii @923
    _ZNK6tribft27ShardLeaveMessageDescriptor18getFieldStructNameEi @924
    _ZNK6tribft27ShardLeaveMessageDescriptor18getFieldTypeStringEi @925
    _ZNK6tribft27ShardLeaveMessageDescriptor21getFieldPropertyNamesEi @926
    _ZNK6tribft27ShardLeaveMessageDescriptor21getFieldValueAsStringEN7omnetpp7any_ptrEii @927
    _ZNK6tribft27ShardLeaveMessageDescriptor21setFieldValueAsStringEN7omnetpp7any_ptrEiiPKc @928
    _ZNK6tribft27ShardLeaveMessageDescriptor25getFieldDynamicTypeStringEN7omnetpp7any_ptrEii @929
    _ZNK6tribft27ShardLeaveMessageDescriptor26getFieldStructValuePointerEN7omnetpp7any_ptrEii @930
    _ZNK6tribft27ShardLeaveMessageDescriptor26setFieldStructValuePointerEN7omnetpp7any_ptrEiiS2_ @931
    _ZNK6tribft27ShardLeaveMessageDescriptor9findFieldEPKc @932
    _ZNK6tribft27ViewChangeMessageDescriptor11doesSupportEPN7omnetpp7cObjectE @933
    _ZNK6tribft27ViewChangeMessageDescriptor11getPropertyEPKc @934
    _ZNK6tribft27ViewChangeMessageDescriptor12getFieldNameEi @935
    _ZNK6tribft27ViewChangeMessageDescriptor13getFieldCountEv @936
    _ZNK6tribft27ViewChangeMessageDescriptor13getFieldValueEN7omnetpp7any_ptrEii @937
    _ZNK6tribft27ViewChangeMessageDescriptor13setFieldValueEN7omnetpp7any_ptrEiiRKNS1_6cValueE @938
    _ZNK6tribft27ViewChangeMessageDescriptor16getFieldPropertyEiPKc @939
    _ZNK6tribft27ViewChangeMessageDescriptor16getPropertyNamesEv @940
    _ZNK6tribft27ViewChangeMessageDescriptor17getFieldArraySizeEN7omnetpp7any_ptrEi @941
    _ZNK6tribft27ViewChangeMessageDescriptor17getFieldTypeFlagsEi @942
    _ZNK6tribft27ViewChangeMessageDescriptor17setFieldArraySizeEN7omnetpp7any_ptrEii @943
    _ZNK6tribft27ViewChangeMessageDescriptor18getFieldStructNameEi @944
    _ZNK6tribft27ViewChangeMessageDescriptor18getFieldTypeStringEi @945
    _ZNK6tribft27ViewChangeMessageDescriptor21getFieldPropertyNamesEi @946
    _ZNK6tribft27ViewChangeMessageDescriptor21getFieldValueAsStringEN7omnetpp7any_ptrEii @947
    _ZNK6tribft27ViewChangeMessageDescriptor21setFieldValueAsStringEN7omnetpp7any_ptrEiiPKc @948
    _ZNK6tribft27ViewChangeMessageDescriptor25getFieldDynamicTypeStringEN7omnetpp7any_ptrEii @949
    _ZNK6tribft27ViewChangeMessageDescriptor26getFieldStructValuePointerEN7omnetpp7any_ptrEii @950
    _ZNK6tribft27ViewChangeMessageDescriptor26setFieldStructValuePointerEN7omnetpp7any_ptrEiiS2_ @951
    _ZNK6tribft27ViewChangeMessageDescriptor9findFieldEPKc @952
    _ZNK6tribft28ShardUpdateMessageDescriptor11doesSupportEPN7omnetpp7cObjectE @953
    _ZNK6tribft28ShardUpdateMessageDescriptor11getPropertyEPKc @954
    _ZNK6tribft28ShardUpdateMessageDescriptor12getFieldNameEi @955
    _ZNK6tribft28ShardUpdateMessageDescriptor13getFieldCountEv @956
    _ZNK6tribft28ShardUpdateMessageDescriptor13getFieldValueEN7omnetpp7any_ptrEii @957
    _ZNK6tribft28ShardUpdateMessageDescriptor13setFieldValueEN7omnetpp7any_ptrEiiRKNS1_6cValueE @958
    _ZNK6tribft28ShardUpdateMessageDescriptor16getFieldPropertyEiPKc @959
    _ZNK6tribft28ShardUpdateMessageDescriptor16getPropertyNamesEv @960
    _ZNK6tribft28ShardUpdateMessageDescriptor17getFieldArraySizeEN7omnetpp7any_ptrEi @961
    _ZNK6tribft28ShardUpdateMessageDescriptor17getFieldTypeFlagsEi @962
    _ZNK6tribft28ShardUpdateMessageDescriptor17setFieldArraySizeEN7omnetpp7any_ptrEii @963
    _ZNK6tribft28ShardUpdateMessageDescriptor18getFieldStructNameEi @964
    _ZNK6tribft28ShardUpdateMessageDescriptor18getFieldTypeStringEi @965
    _ZNK6tribft28ShardUpdateMessageDescriptor21getFieldPropertyNamesEi @966
    _ZNK6tribft28ShardUpdateMessageDescriptor21getFieldValueAsStringEN7omnetpp7any_ptrEii @967
    _ZNK6tribft28ShardUpdateMessageDescriptor21setFieldValueAsStringEN7omnetpp7any_ptrEiiPKc @968
    _ZNK6tribft28ShardUpdateMessageDescriptor25getFieldDynamicTypeStringEN7omnetpp7any_ptrEii @969
    _ZNK6tribft28ShardUpdateMessageDescriptor26getFieldStructValuePointerEN7omnetpp7any_ptrEii @970
    _ZNK6tribft28ShardUpdateMessageDescriptor26setFieldStructValuePointerEN7omnetpp7any_ptrEiiS2_ @971
    _ZNK6tribft28ShardUpdateMessageDescriptor9findFieldEPKc @972
    _ZNK6tribft28TestMinimalMessageDescriptor11doesSupportEPN7omnetpp7cObjectE @973
    _ZNK6tribft28TestMinimalMessageDescriptor11getPropertyEPKc @974
    _ZNK6tribft28TestMinimalMessageDescriptor12getFieldNameEi @975
    _ZNK6tribft28TestMinimalMessageDescriptor13getFieldCountEv @976
    _ZNK6tribft28TestMinimalMessageDescriptor13getFieldValueEN7omnetpp7any_ptrEii @977
    _ZNK6tribft28TestMinimalMessageDescriptor13setFieldValueEN7omnetpp7any_ptrEiiRKNS1_6cValueE @978
    _ZNK6tribft28TestMinimalMessageDescriptor16getFieldPropertyEiPKc @979
    _ZNK6tribft28TestMinimalMessageDescriptor16getPropertyNamesEv @980
    _ZNK6tribft28TestMinimalMessageDescriptor17getFieldArraySizeEN7omnetpp7any_ptrEi @981
    _ZNK6tribft28TestMinimalMessageDescriptor17getFieldTypeFlagsEi @982
    _ZNK6tribft28TestMinimalMessageDescriptor17setFieldArraySizeEN7omnetpp7any_ptrEii @983
    _ZNK6tribft28TestMinimalMessageDescriptor18getFieldStructNameEi @984
    _ZNK6tribft28TestMinimalMessageDescriptor18getFieldTypeStringEi @985
    _ZNK6tribft28TestMinimalMessageDescriptor21getFieldPropertyNamesEi @986
    _ZNK6tribft28TestMinimalMessageDescriptor21getFieldValueAsStringEN7omnetpp7any_ptrEii @987
    _ZNK6tribft28TestMinimalMessageDescriptor21setFieldValueAsStringEN7omnetpp7any_ptrEiiPKc @988
    _ZNK6tribft28TestMinimalMessageDescriptor25getFieldDynamicTypeStringEN7omnetpp7any_ptrEii @989
    _ZNK6tribft28TestMinimalMessageDescriptor26getFieldStructValuePointerEN7omnetpp7any_ptrEii @990
    _ZNK6tribft28TestMinimalMessageDescriptor26setFieldStructValuePointerEN7omnetpp7any_ptrEiiS2_ @991
    _ZNK6tribft28TestMinimalMessageDescriptor9findFieldEPKc @992
    _ZNK6tribft28TransactionMessageDescriptor11doesSupportEPN7omnetpp7cObjectE @993
    _ZNK6tribft28TransactionMessageDescriptor11getPropertyEPKc @994
    _ZNK6tribft28TransactionMessageDescriptor12getFieldNameEi @995
    _ZNK6tribft28TransactionMessageDescriptor13getFieldCountEv @996
    _ZNK6tribft28TransactionMessageDescriptor13getFieldValueEN7omnetpp7any_ptrEii @997
    _ZNK6tribft28TransactionMessageDescriptor13setFieldValueEN7omnetpp7any_ptrEiiRKNS1_6cValueE @998
    _ZNK6tribft28TransactionMessageDescriptor16getFieldPropertyEiPKc @999
    _ZNK6tribft28TransactionMessageDescriptor16getPropertyNamesEv @1000
    _ZNK6tribft28TransactionMessageDescriptor17getFieldArraySizeEN7omnetpp7any_ptrEi @1001
    _ZNK6tribft28TransactionMessageDescriptor17getFieldTypeFlagsEi @1002
    _ZNK6tribft28TransactionMessageDescriptor17setFieldArraySizeEN7omnetpp7any_ptrEii @1003
    _ZNK6tribft28TransactionMessageDescriptor18getFieldStructNameEi @1004
    _ZNK6tribft28TransactionMessageDescriptor18getFieldTypeStringEi @1005
    _ZNK6tribft28TransactionMessageDescriptor21getFieldPropertyNamesEi @1006
    _ZNK6tribft28TransactionMessageDescriptor21getFieldValueAsStringEN7omnetpp7any_ptrEii @1007
    _ZNK6tribft28TransactionMessageDescriptor21setFieldValueAsStringEN7omnetpp7any_ptrEiiPKc @1008
    _ZNK6tribft28TransactionMessageDescriptor25getFieldDynamicTypeStringEN7omnetpp7any_ptrEii @1009
    _ZNK6tribft28TransactionMessageDescriptor26getFieldStructValuePointerEN7omnetpp7any_ptrEii @1010
    _ZNK6tribft28TransactionMessageDescriptor26setFieldStructValuePointerEN7omnetpp7any_ptrEiiS2_ @1011
    _ZNK6tribft28TransactionMessageDescriptor9findFieldEPKc @1012
    _ZNK6tribft29CrossShardTxMessageDescriptor11doesSupportEPN7omnetpp7cObjectE @1013
    _ZNK6tribft29CrossShardTxMessageDescriptor11getPropertyEPKc @1014
    _ZNK6tribft29CrossShardTxMessageDescriptor12getFieldNameEi @1015
    _ZNK6tribft29CrossShardTxMessageDescriptor13getFieldCountEv @1016
    _ZNK6tribft29CrossShardTxMessageDescriptor13getFieldValueEN7omnetpp7any_ptrEii @1017
    _ZNK6tribft29CrossShardTxMessageDescriptor13setFieldValueEN7omnetpp7any_ptrEiiRKNS1_6cValueE @1018
    _ZNK6tribft29CrossShardTxMessageDescriptor16getFieldPropertyEiPKc @1019
    _ZNK6tribft29CrossShardTxMessageDescriptor16getPropertyNamesEv @1020
    _ZNK6tribft29CrossShardTxMessageDescriptor17getFieldArraySizeEN7omnetpp7any_ptrEi @1021
    _ZNK6tribft29CrossShardTxMessageDescriptor17getFieldTypeFlagsEi @1022
    _ZNK6tribft29CrossShardTxMessageDescriptor17setFieldArraySizeEN7omnetpp7any_ptrEii @1023
    _ZNK6tribft29CrossShardTxMessageDescriptor18getFieldStructNameEi @1024
    _ZNK6tribft29CrossShardTxMessageDescriptor18getFieldTypeStringEi @1025
    _ZNK6tribft29CrossShardTxMessageDescriptor21getFieldPropertyNamesEi @1026
    _ZNK6tribft29CrossShardTxMessageDescriptor21getFieldValueAsStringEN7omnetpp7any_ptrEii @1027
    _ZNK6tribft29CrossShardTxMessageDescriptor21setFieldValueAsStringEN7omnetpp7any_ptrEiiPKc @1028
    _ZNK6tribft29CrossShardTxMessageDescriptor25getFieldDynamicTypeStringEN7omnetpp7any_ptrEii @1029
    _ZNK6tribft29CrossShardTxMessageDescriptor26getFieldStructValuePointerEN7omnetpp7any_ptrEii @1030
    _ZNK6tribft29CrossShardTxMessageDescriptor26setFieldStructValuePointerEN7omnetpp7any_ptrEiiS2_ @1031
    _ZNK6tribft29CrossShardTxMessageDescriptor9findFieldEPKc @1032
    _ZNK6tribft29PhaseAdvanceMessageDescriptor11doesSupportEPN7omnetpp7cObjectE @1033
    _ZNK6tribft29PhaseAdvanceMessageDescriptor11getPropertyEPKc @1034
    _ZNK6tribft29PhaseAdvanceMessageDescriptor12getFieldNameEi @1035
    _ZNK6tribft29PhaseAdvanceMessageDescriptor13getFieldCountEv @1036
    _ZNK6tribft29PhaseAdvanceMessageDescriptor13getFieldValueEN7omnetpp7any_ptrEii @1037
    _ZNK6tribft29PhaseAdvanceMessageDescriptor13setFieldValueEN7omnetpp7any_ptrEiiRKNS1_6cValueE @1038
    _ZNK6tribft29PhaseAdvanceMessageDescriptor16getFieldPropertyEiPKc @1039
    _ZNK6tribft29PhaseAdvanceMessageDescriptor16getPropertyNamesEv @1040
    _ZNK6tribft29PhaseAdvanceMessageDescriptor17getFieldArraySizeEN7omnetpp7any_ptrEi @1041
    _ZNK6tribft29PhaseAdvanceMessageDescriptor17getFieldTypeFlagsEi @1042
    _ZNK6tribft29PhaseAdvanceMessageDescriptor17setFieldArraySizeEN7omnetpp7any_ptrEii @1043
    _ZNK6tribft29PhaseAdvanceMessageDescriptor18getFieldStructNameEi @1044
    _ZNK6tribft29PhaseAdvanceMessageDescriptor18getFieldTypeStringEi @1045
    _ZNK6tribft29PhaseAdvanceMessageDescriptor21getFieldPropertyNamesEi @1046
    _ZNK6tribft29PhaseAdvanceMessageDescriptor21getFieldValueAsStringEN7omnetpp7any_ptrEii @1047
    _ZNK6tribft29PhaseAdvanceMessageDescriptor21setFieldValueAsStringEN7omnetpp7any_ptrEiiPKc @1048
    _ZNK6tribft29PhaseAdvanceMessageDescriptor25getFieldDynamicTypeStringEN7omnetpp7any_ptrEii @1049
    _ZNK6tribft29PhaseAdvanceMessageDescriptor26getFieldStructValuePointerEN7omnetpp7any_ptrEii @1050
    _ZNK6tribft29PhaseAdvanceMessageDescriptor26setFieldStructValuePointerEN7omnetpp7any_ptrEiiS2_ @1051
    _ZNK6tribft29PhaseAdvanceMessageDescriptor9findFieldEPKc @1052
    _ZNK6tribft31LeaderElectionMessageDescriptor11doesSupportEPN7omnetpp7cObjectE @1053
    _ZNK6tribft31LeaderElectionMessageDescriptor11getPropertyEPKc @1054
    _ZNK6tribft31LeaderElectionMessageDescriptor12getFieldNameEi @1055
    _ZNK6tribft31LeaderElectionMessageDescriptor13getFieldCountEv @1056
    _ZNK6tribft31LeaderElectionMessageDescriptor13getFieldValueEN7omnetpp7any_ptrEii @1057
    _ZNK6tribft31LeaderElectionMessageDescriptor13setFieldValueEN7omnetpp7any_ptrEiiRKNS1_6cValueE @1058
    _ZNK6tribft31LeaderElectionMessageDescriptor16getFieldPropertyEiPKc @1059
    _ZNK6tribft31LeaderElectionMessageDescriptor16getPropertyNamesEv @1060
    _ZNK6tribft31LeaderElectionMessageDescriptor17getFieldArraySizeEN7omnetpp7any_ptrEi @1061
    _ZNK6tribft31LeaderElectionMessageDescriptor17getFieldTypeFlagsEi @1062
    _ZNK6tribft31LeaderElectionMessageDescriptor17setFieldArraySizeEN7omnetpp7any_ptrEii @1063
    _ZNK6tribft31LeaderElectionMessageDescriptor18getFieldStructNameEi @1064
    _ZNK6tribft31LeaderElectionMessageDescriptor18getFieldTypeStringEi @1065
    _ZNK6tribft31LeaderElectionMessageDescriptor21getFieldPropertyNamesEi @1066
    _ZNK6tribft31LeaderElectionMessageDescriptor21getFieldValueAsStringEN7omnetpp7any_ptrEii @1067
    _ZNK6tribft31LeaderElectionMessageDescriptor21setFieldValueAsStringEN7omnetpp7any_ptrEiiPKc @1068
    _ZNK6tribft31LeaderElectionMessageDescriptor25getFieldDynamicTypeStringEN7omnetpp7any_ptrEii @1069
    _ZNK6tribft31LeaderElectionMessageDescriptor26getFieldStructValuePointerEN7omnetpp7any_ptrEii @1070
    _ZNK6tribft31LeaderElectionMessageDescriptor26setFieldStructValuePointerEN7omnetpp7any_ptrEiiS2_ @1071
    _ZNK6tribft31LeaderElectionMessageDescriptor9findFieldEPKc @1072
    _ZNK6tribft32ReputationQueryMessageDescriptor11doesSupportEPN7omnetpp7cObjectE @1073
    _ZNK6tribft32ReputationQueryMessageDescriptor11getPropertyEPKc @1074
    _ZNK6tribft32ReputationQueryMessageDescriptor12getFieldNameEi @1075
    _ZNK6tribft32ReputationQueryMessageDescriptor13getFieldCountEv @1076
    _ZNK6tribft32ReputationQueryMessageDescriptor13getFieldValueEN7omnetpp7any_ptrEii @1077
    _ZNK6tribft32ReputationQueryMessageDescriptor13setFieldValueEN7omnetpp7any_ptrEiiRKNS1_6cValueE @1078
    _ZNK6tribft32ReputationQueryMessageDescriptor16getFieldPropertyEiPKc @1079
    _ZNK6tribft32ReputationQueryMessageDescriptor16getPropertyNamesEv @1080
    _ZNK6tribft32ReputationQueryMessageDescriptor17getFieldArraySizeEN7omnetpp7any_ptrEi @1081
    _ZNK6tribft32ReputationQueryMessageDescriptor17getFieldTypeFlagsEi @1082
    _ZNK6tribft32ReputationQueryMessageDescriptor17setFieldArraySizeEN7omnetpp7any_ptrEii @1083
    _ZNK6tribft32ReputationQueryMessageDescriptor18getFieldStructNameEi @1084
    _ZNK6tribft32ReputationQueryMessageDescriptor18getFieldTypeStringEi @1085
    _ZNK6tribft32ReputationQueryMessageDescriptor21getFieldPropertyNamesEi @1086
    _ZNK6tribft32ReputationQueryMessageDescriptor21getFieldValueAsStringEN7omnetpp7any_ptrEii @1087
    _ZNK6tribft32ReputationQueryMessageDescriptor21setFieldValueAsStringEN7omnetpp7any_ptrEiiPKc @1088
    _ZNK6tribft32ReputationQueryMessageDescriptor25getFieldDynamicTypeStringEN7omnetpp7any_ptrEii @1089
    _ZNK6tribft32ReputationQueryMessageDescriptor26getFieldStructValuePointerEN7omnetpp7any_ptrEii @1090
    _ZNK6tribft32ReputationQueryMessageDescriptor26setFieldStructValuePointerEN7omnetpp7any_ptrEiiS2_ @1091
    _ZNK6tribft32ReputationQueryMessageDescriptor9findFieldEPKc @1092
    _ZNK6tribft33CrossShardCommitMessageDescriptor11doesSupportEPN7omnetpp7cObjectE @1093
    _ZNK6tribft33CrossShardCommitMessageDescriptor11getPropertyEPKc @1094
    _ZNK6tribft33CrossShardCommitMessageDescriptor12getFieldNameEi @1095
    _ZNK6tribft33CrossShardCommitMessageDescriptor13getFieldCountEv @1096
    _ZNK6tribft33CrossShardCommitMessageDescriptor13getFieldValueEN7omnetpp7any_ptrEii @1097
    _ZNK6tribft33CrossShardCommitMessageDescriptor13setFieldValueEN7omnetpp7any_ptrEiiRKNS1_6cValueE @1098
    _ZNK6tribft33CrossShardCommitMessageDescriptor16getFieldPropertyEiPKc @1099
    _ZNK6tribft33CrossShardCommitMessageDescriptor16getPropertyNamesEv @1100
    _ZNK6tribft33CrossShardCommitMessageDescriptor17getFieldArraySizeEN7omnetpp7any_ptrEi @1101
    _ZNK6tribft33CrossShardCommitMessageDescriptor17getFieldTypeFlagsEi @1102
    _ZNK6tribft33CrossShardCommitMessageDescriptor17setFieldArraySizeEN7omnetpp7any_ptrEii @1103
    _ZNK6tribft33CrossShardCommitMessageDescriptor18getFieldStructNameEi @1104
    _ZNK6tribft33CrossShardCommitMessageDescriptor18getFieldTypeStringEi @1105
    _ZNK6tribft33CrossShardCommitMessageDescriptor21getFieldPropertyNamesEi @1106
    _ZNK6tribft33CrossShardCommitMessageDescriptor21getFieldValueAsStringEN7omnetpp7any_ptrEii @1107
    _ZNK6tribft33CrossShardCommitMessageDescriptor21setFieldValueAsStringEN7omnetpp7any_ptrEiiPKc @1108
    _ZNK6tribft33CrossShardCommitMessageDescriptor25getFieldDynamicTypeStringEN7omnetpp7any_ptrEii @1109
    _ZNK6tribft33CrossShardCommitMessageDescriptor26getFieldStructValuePointerEN7omnetpp7any_ptrEii @1110
    _ZNK6tribft33CrossShardCommitMessageDescriptor26setFieldStructValuePointerEN7omnetpp7any_ptrEiiS2_ @1111
    _ZNK6tribft33CrossShardCommitMessageDescriptor9findFieldEPKc @1112
    _ZNK6tribft33ReputationUpdateMessageDescriptor11doesSupportEPN7omnetpp7cObjectE @1113
    _ZNK6tribft33ReputationUpdateMessageDescriptor11getPropertyEPKc @1114
    _ZNK6tribft33ReputationUpdateMessageDescriptor12getFieldNameEi @1115
    _ZNK6tribft33ReputationUpdateMessageDescriptor13getFieldCountEv @1116
    _ZNK6tribft33ReputationUpdateMessageDescriptor13getFieldValueEN7omnetpp7any_ptrEii @1117
    _ZNK6tribft33ReputationUpdateMessageDescriptor13setFieldValueEN7omnetpp7any_ptrEiiRKNS1_6cValueE @1118
    _ZNK6tribft33ReputationUpdateMessageDescriptor16getFieldPropertyEiPKc @1119
    _ZNK6tribft33ReputationUpdateMessageDescriptor16getPropertyNamesEv @1120
    _ZNK6tribft33ReputationUpdateMessageDescriptor17getFieldArraySizeEN7omnetpp7any_ptrEi @1121
    _ZNK6tribft33ReputationUpdateMessageDescriptor17getFieldTypeFlagsEi @1122
    _ZNK6tribft33ReputationUpdateMessageDescriptor17setFieldArraySizeEN7omnetpp7any_ptrEii @1123
    _ZNK6tribft33ReputationUpdateMessageDescriptor18getFieldStructNameEi @1124
    _ZNK6tribft33ReputationUpdateMessageDescriptor18getFieldTypeStringEi @1125
    _ZNK6tribft33ReputationUpdateMessageDescriptor21getFieldPropertyNamesEi @1126
    _ZNK6tribft33ReputationUpdateMessageDescriptor21getFieldValueAsStringEN7omnetpp7any_ptrEii @1127
    _ZNK6tribft33ReputationUpdateMessageDescriptor21setFieldValueAsStringEN7omnetpp7any_ptrEiiPKc @1128
    _ZNK6tribft33ReputationUpdateMessageDescriptor25getFieldDynamicTypeStringEN7omnetpp7any_ptrEii @1129
    _ZNK6tribft33ReputationUpdateMessageDescriptor26getFieldStructValuePointerEN7omnetpp7any_ptrEii @1130
    _ZNK6tribft33ReputationUpdateMessageDescriptor26setFieldStructValuePointerEN7omnetpp7any_ptrEiiS2_ @1131
    _ZNK6tribft33ReputationUpdateMessageDescriptor9findFieldEPKc @1132
    _ZNK6tribft35ReputationResponseMessageDescriptor11doesSupportEPN7omnetpp7cObjectE @1133
    _ZNK6tribft35ReputationResponseMessageDescriptor11getPropertyEPKc @1134
    _ZNK6tribft35ReputationResponseMessageDescriptor12getFieldNameEi @1135
    _ZNK6tribft35ReputationResponseMessageDescriptor13getFieldCountEv @1136
    _ZNK6tribft35ReputationResponseMessageDescriptor13getFieldValueEN7omnetpp7any_ptrEii @1137
    _ZNK6tribft35ReputationResponseMessageDescriptor13setFieldValueEN7omnetpp7any_ptrEiiRKNS1_6cValueE @1138
    _ZNK6tribft35ReputationResponseMessageDescriptor16getFieldPropertyEiPKc @1139
    _ZNK6tribft35ReputationResponseMessageDescriptor16getPropertyNamesEv @1140
    _ZNK6tribft35ReputationResponseMessageDescriptor17getFieldArraySizeEN7omnetpp7any_ptrEi @1141
    _ZNK6tribft35ReputationResponseMessageDescriptor17getFieldTypeFlagsEi @1142
    _ZNK6tribft35ReputationResponseMessageDescriptor17setFieldArraySizeEN7omnetpp7any_ptrEii @1143
    _ZNK6tribft35ReputationResponseMessageDescriptor18getFieldStructNameEi @1144
    _ZNK6tribft35ReputationResponseMessageDescriptor18getFieldTypeStringEi @1145
    _ZNK6tribft35ReputationResponseMessageDescriptor21getFieldPropertyNamesEi @1146
    _ZNK6tribft35ReputationResponseMessageDescriptor21getFieldValueAsStringEN7omnetpp7any_ptrEii @1147
    _ZNK6tribft35ReputationResponseMessageDescriptor21setFieldValueAsStringEN7omnetpp7any_ptrEiiPKc @1148
    _ZNK6tribft35ReputationResponseMessageDescriptor25getFieldDynamicTypeStringEN7omnetpp7any_ptrEii @1149
    _ZNK6tribft35ReputationResponseMessageDescriptor26getFieldStructValuePointerEN7omnetpp7any_ptrEii @1150
    _ZNK6tribft35ReputationResponseMessageDescriptor26setFieldStructValuePointerEN7omnetpp7any_ptrEiiS2_ @1151
    _ZNK6tribft35ReputationResponseMessageDescriptor9findFieldEPKc @1152
    _ZNK6tribft9TriBFTApp15getCurrentEpochEv @1153
    _ZNK6tribft9TriBFTApp15isInTargetShardEi @1154
    _ZNK6tribft9TriBFTApp15needsReelectionEv @1155
    _ZNK6tribft9TriBFTApp18getCurrentLocationEv @1156
    _ZNK6tribft9TriBFTApp19getDistanceToLeaderEv @1157
    _ZNK6tribft9TriBFTApp24shouldForwardTransactionEd @1158
    _ZNK6tribft9TriBFTApp28shouldParticipateInConsensusEv @1159
    _ZNK6tribft9TriBFTApp8isLeaderEv @1160
    _ZNK6tribft9TriBFTApp9getNodeIDEv @1161
    _ZNK7omnetpp10cComponent10chi_squareEji @1162
    _ZNK7omnetpp10cComponent10intuniformEiii @1163
    _ZNK7omnetpp10cComponent11exponentialENS_7SimTimeEi @1164
    _ZNK7omnetpp10cComponent11exponentialEdi @1165
    _ZNK7omnetpp10cComponent11negbinomialEidi @1166
    _ZNK7omnetpp10cComponent11truncnormalENS_7SimTimeES1_i @1167
    _ZNK7omnetpp10cComponent11truncnormalEddi @1168
    _ZNK7omnetpp10cComponent12getNumParamsEv @1169
    _ZNK7omnetpp10cComponent14getDisplayNameEv @1170
    _ZNK7omnetpp10cComponent14intuniformexclEiii @1171
    _ZNK7omnetpp10cComponent14pareto_shiftedEdddi @1172
    _ZNK7omnetpp10cComponent4betaEddi @1173
    _ZNK7omnetpp10cComponent6cauchyEddi @1174
    _ZNK7omnetpp10cComponent6normalENS_7SimTimeES1_i @1175
    _ZNK7omnetpp10cComponent6normalEddi @1176
    _ZNK7omnetpp10cComponent6triangEdddi @1177
    _ZNK7omnetpp10cComponent7dblrandEi @1178
    _ZNK7omnetpp10cComponent7gamma_dEddi @1179
    _ZNK7omnetpp10cComponent7intrandEji @1180
    _ZNK7omnetpp10cComponent7poissonEdi @1181
    _ZNK7omnetpp10cComponent7uniformENS_7SimTimeES1_i @1182
    _ZNK7omnetpp10cComponent7uniformEddi @1183
    _ZNK7omnetpp10cComponent7weibullEddi @1184
    _ZNK7omnetpp10cComponent8binomialEidi @1185
    _ZNK7omnetpp10cComponent8erlang_kEjdi @1186
    _ZNK7omnetpp10cComponent9bernoulliEdi @1187
    _ZNK7omnetpp10cComponent9geometricEdi @1188
    _ZNK7omnetpp10cComponent9lognormalEddi @1189
    _ZNK7omnetpp10cComponent9student_tEji @1190
    _ZNK7omnetpp10cIListener17getSubscribeCountEv @1191
    _ZNK7omnetpp10cSoftOwner11isSoftOwnerEv @1192
    _ZNK7omnetpp12cNamedObject7getNameEv @1193
    _ZNK7omnetpp12cOwnedObject13isOwnedObjectEv @1194
    _ZNK7omnetpp12cOwnedObject8getOwnerEv @1195
    _ZNK7omnetpp23cNoncopyableOwnedObject10parsimPackEPNS_11cCommBufferE @1196
    _ZNK7omnetpp4cParcviEv @1197
    _ZNK7omnetpp7cModule13isPlaceholderEv @1198
    _ZNK7omnetpp7cModule15getParentModuleEv @1199
    _ZNK7omnetpp7cModule16getComponentKindEv @1200
    _ZNK7omnetpp7cModule27getBuiltinAnimationsAllowedEv @1201
    _ZNK7omnetpp7cObject11getFullNameEv @1202
    _ZNK7omnetpp7cObject11isSoftOwnerEv @1203
    _ZNK7omnetpp7cObject13isOwnedObjectEv @1204
    _ZNK7omnetpp7cObject7getNameEv @1205
    _ZNK7omnetpp7cObject8getOwnerEv @1206
    _ZNK7omnetpp7cPacket11hasBitErrorEv @1207
    _ZNK7omnetpp7cPacket12getBitLengthEv @1208
    _ZNK7omnetpp7cPacket8isPacketEv @1209
    _ZNK7omnetpp8cMessage12getSrcProcIdEv @1210
    _ZNK7omnetpp8cMessage6hasParEPKc @1211
    _ZNK7omnetpp8cMessage9isMessageEv @1212
    _ZNKSt3__111__move_implINS_17_ClassicAlgPolicyEEclB8ne200100IPN6tribft11TransactionES6_S6_EENS_4pairIT_T1_EES8_T0_S9_ @1213
    _ZNKSt3__115basic_stringbufIcNS_11char_traitsIcEENS_9allocatorIcEEE3strEv @1214
    _ZNKSt3__121__murmur2_or_cityhashIyLy64EEclB8ne200100EPKvy @1215
    _ZNKSt3__16__treeINS_12__value_typeINS_12basic_stringIcNS_11char_traitsIcEENS_9allocatorIcEEEEN6tribft12PendingEventEEENS_19__map_value_compareIS7_SA_NS_4lessIS7_EELb1EEENS5_ISA_EEE4findIS7_EENS_21__tree_const_iteratorISA_PNS_11__tree_nodeISA_PvEExEERKT_ @1216
    _ZNKSt3__16__treeINS_12__value_typeINS_12basic_stringIcNS_11char_traitsIcEENS_9allocatorIcEEEEN6tribft16ReputationRecordEEENS_19__map_value_compareIS7_SA_NS_4lessIS7_EELb1EEENS5_ISA_EEE4findIS7_EENS_21__tree_const_iteratorISA_PNS_11__tree_nodeISA_PvEExEERKT_ @1217
    _ZNKSt3__16__treeINS_12__value_typeINS_12basic_stringIcNS_11char_traitsIcEENS_9allocatorIcEEEEN6tribft8GeoCoordEEENS_19__map_value_compareIS7_SA_NS_4lessIS7_EELb1EEENS5_ISA_EEE4findIS7_EENS_21__tree_const_iteratorISA_PNS_11__tree_nodeISA_PvEExEERKT_ @1218
    _ZNKSt3__16__treeINS_12__value_typeINS_12basic_stringIcNS_11char_traitsIcEENS_9allocatorIcEEEEN6tribft8NodeRoleEEENS_19__map_value_compareIS7_SA_NS_4lessIS7_EELb1EEENS5_ISA_EEE4findIS7_EENS_21__tree_const_iteratorISA_PNS_11__tree_nodeISA_PvEExEERKT_ @1219
    _ZNKSt3__16__treeINS_12__value_typeINS_12basic_stringIcNS_11char_traitsIcEENS_9allocatorIcEEEEiEENS_19__map_value_compareIS7_S8_NS_4lessIS7_EELb1EEENS5_IS8_EEE4findIS7_EENS_21__tree_const_iteratorIS8_PNS_11__tree_nodeIS8_PvEExEERKT_ @1220
    _ZNSt12length_errorC2B8ne200100EPKc @1221
    _ZNSt3__110__function12__value_funcIFvRKN6tribft17ConsensusProposalEEE4swapB8ne200100ERS7_ @1222
    _ZNSt3__110__function12__value_funcIFvRKN6tribft5BlockEEE4swapB8ne200100ERS7_ @1223
    _ZNSt3__110__function12__value_funcIFvRKN6tribft8VoteInfoEEE4swapB8ne200100ERS7_ @1224
    _ZNSt3__110__function12__value_funcIFvRKNS_12basic_stringIcNS_11char_traitsIcEENS_9allocatorIcEEEEEE4swapB8ne200100ERSB_ @1225
    _ZNSt3__110__function12__value_funcIFvRKNS_12basic_stringIcNS_11char_traitsIcEENS_9allocatorIcEEEEN6tribft14ConsensusPhaseESB_EE4swapB8ne200100ERSD_ @1226
    _ZNSt3__110__function12__value_funcIFvRKNS_12basic_stringIcNS_11char_traitsIcEENS_9allocatorIcEEEEbEE4swapB8ne200100ERSB_ @1227
    _ZNSt3__110__function12__value_funcIFvRKNS_12basic_stringIcNS_11char_traitsIcEENS_9allocatorIcEEEEyEE4swapB8ne200100ERSB_ @1228
    _ZNSt3__110__function6__baseIFvRKN6tribft17ConsensusProposalEEED2Ev @1229
    _ZNSt3__110__function6__baseIFvRKN6tribft5BlockEEED2Ev @1230
    _ZNSt3__110__function6__baseIFvRKN6tribft8VoteInfoEEED2Ev @1231
    _ZNSt3__110__function6__baseIFvRKNS_12basic_stringIcNS_11char_traitsIcEENS_9allocatorIcEEEEEED2Ev @1232
    _ZNSt3__110__function6__baseIFvRKNS_12basic_stringIcNS_11char_traitsIcEENS_9allocatorIcEEEEN6tribft14ConsensusPhaseESB_EED2Ev @1233
    _ZNSt3__110unique_ptrINS_11__tree_nodeINS_12__value_typeIN6tribft14ConsensusPhaseENS3_17QuorumCertificateEEEPvEENS_22__tree_node_destructorINS_9allocatorIS8_EEEEED2B8ne200100Ev @1234
    _ZNSt3__110unique_ptrINS_11__tree_nodeINS_12__value_typeINS_12basic_stringIcNS_11char_traitsIcEENS_9allocatorIcEEEEN6tribft12PendingEventEEEPvEENS_22__tree_node_destructorINS6_ISD_EEEEED2B8ne200100Ev @1235
    _ZNSt3__110unique_ptrINS_11__tree_nodeINS_12__value_typeINS_12basic_stringIcNS_11char_traitsIcEENS_9allocatorIcEEEEN6tribft16ReputationRecordEEEPvEENS_22__tree_node_destructorINS6_ISD_EEEEED2B8ne200100Ev @1236
    _ZNSt3__110unique_ptrINS_11__tree_nodeINS_12__value_typeINS_12basic_stringIcNS_11char_traitsIcEENS_9allocatorIcEEEEN6tribft8GeoCoordEEEPvEENS_22__tree_node_destructorINS6_ISD_EEEEED2B8ne200100Ev @1237
    _ZNSt3__110unique_ptrINS_11__tree_nodeINS_12__value_typeINS_12basic_stringIcNS_11char_traitsIcEENS_9allocatorIcEEEEN6tribft8NodeRoleEEEPvEENS_22__tree_node_destructorINS6_ISD_EEEEED2B8ne200100Ev @1238
    _ZNSt3__110unique_ptrINS_11__tree_nodeINS_12__value_typeINS_12basic_stringIcNS_11char_traitsIcEENS_9allocatorIcEEEENS_3mapIN6tribft14ConsensusPhaseENS_6vectorINSA_8VoteInfoENS6_ISD_EEEENS_4lessISB_EENS6_INS_4pairIKSB_SF_EEEEEEEEPvEENS_22__tree_node_destructorINS6_ISP_EEEEED2B8ne200100Ev @1239
    _ZNSt3__110unique_ptrINS_11__tree_nodeINS_12__value_typeINS_12basic_stringIcNS_11char_traitsIcEENS_9allocatorIcEEEEdEEPvEENS_22__tree_node_destructorINS6_ISB_EEEEED2B8ne200100Ev @1240
    _ZNSt3__110unique_ptrINS_11__tree_nodeINS_12__value_typeINS_12basic_stringIcNS_11char_traitsIcEENS_9allocatorIcEEEEiEEPvEENS_22__tree_node_destructorINS6_ISB_EEEEED2B8ne200100Ev @1241
    _ZNSt3__110unique_ptrINS_11__tree_nodeINS_12__value_typeINS_12basic_stringIcNS_11char_traitsIcEENS_9allocatorIcEEEEyEEPvEENS_22__tree_node_destructorINS6_ISB_EEEEED2B8ne200100Ev @1242
    _ZNSt3__110unique_ptrINS_11__tree_nodeINS_12__value_typeIiN6tribft9ShardInfoEEEPvEENS_22__tree_node_destructorINS_9allocatorIS7_EEEEED2B8ne200100Ev @1243
    _ZNSt3__110unique_ptrINS_11__tree_nodeINS_12__value_typeIyN6tribft11BlockHeaderEEEPvEENS_22__tree_node_destructorINS_9allocatorIS7_EEEEE5resetB8ne200100EPS7_ @1244
    _ZNSt3__110unique_ptrINS_11__tree_nodeINS_12__value_typeIyN6tribft5BlockEEEPvEENS_22__tree_node_destructorINS_9allocatorIS7_EEEEED2B8ne200100Ev @1245
    _ZNSt3__110unique_ptrINS_11__tree_nodeINS_12basic_stringIcNS_11char_traitsIcEENS_9allocatorIcEEEEPvEENS_22__tree_node_destructorINS5_IS9_EEEEED2B8ne200100Ev @1246
    _ZNSt3__112__destroy_atB8ne200100INS_4pairIKN6tribft14ConsensusPhaseENS2_17QuorumCertificateEEETnNS_9enable_ifIXntsr8is_arrayIT_EE5valueEiE4typeELi0EEEvPS8_ @1247
    _ZNSt3__112__destroy_atB8ne200100INS_4pairIKNS_12basic_stringIcNS_11char_traitsIcEENS_9allocatorIcEEEEN6tribft12PendingEventEEETnNS_9enable_ifIXntsr8is_arrayIT_EE5valueEiE4typeELi0EEEvPSD_ @1248
    _ZNSt3__112basic_stringIcNS_11char_traitsIcEENS_9allocatorIcEEE20__throw_length_errorB8ne200100Ev @1249
    _ZNSt3__112basic_stringIcNS_11char_traitsIcEENS_9allocatorIcEEE25__init_copy_ctor_externalEPKcy @1250
    _ZNSt3__113__tree_removeB8ne200100IPNS_16__tree_node_baseIPvEEEEvT_S5_ @1251
    _ZNSt3__113basic_ostreamIcNS_11char_traitsIcEEE6sentryD2Ev @1252
    _ZNSt3__114__split_bufferIN6tribft11TransactionERNS_9allocatorIS2_EEED2Ev @1253
    _ZNSt3__114__split_bufferIN6tribft5BlockERNS_9allocatorIS2_EEED2Ev @1254
    _ZNSt3__114__split_bufferIN6tribft8VoteInfoERNS_9allocatorIS2_EEED2Ev @1255
    _ZNSt3__114__split_bufferIN6tribft9ShardInfoERNS_9allocatorIS2_EEED2Ev @1256
    _ZNSt3__114__split_bufferINS_12basic_stringIcNS_11char_traitsIcEENS_9allocatorIcEEEERNS4_IS6_EEED2Ev @1257
    _ZNSt3__115basic_stringbufIcNS_11char_traitsIcEENS_9allocatorIcEEE15__init_buf_ptrsB8ne200100Ev @1258
    _ZNSt3__115basic_stringbufIcNS_11char_traitsIcEENS_9allocatorIcEEE7seekoffExNS_8ios_base7seekdirEj @1259
    _ZNSt3__115basic_stringbufIcNS_11char_traitsIcEENS_9allocatorIcEEE7seekposENS_4fposI9_MbstatetEEj @1260
    _ZNSt3__115basic_stringbufIcNS_11char_traitsIcEENS_9allocatorIcEEE8overflowEi @1261
    _ZNSt3__115basic_stringbufIcNS_11char_traitsIcEENS_9allocatorIcEEE9pbackfailEi @1262
    _ZNSt3__115basic_stringbufIcNS_11char_traitsIcEENS_9allocatorIcEEE9underflowEv @1263
    _ZNSt3__115basic_stringbufIcNS_11char_traitsIcEENS_9allocatorIcEEED0Ev @1264
    _ZNSt3__115basic_stringbufIcNS_11char_traitsIcEENS_9allocatorIcEEED2Ev @1265
    _ZNSt3__116__pad_and_outputB8ne200100IcNS_11char_traitsIcEEEENS_19ostreambuf_iteratorIT_T0_EES6_PKS4_S8_S8_RNS_8ios_baseES4_ @1266
    _ZNSt3__118basic_stringstreamIcNS_11char_traitsIcEENS_9allocatorIcEEEC1B8ne200100Ev @1267
    _ZNSt3__118basic_stringstreamIcNS_11char_traitsIcEENS_9allocatorIcEEED0Ev @1268
    _ZNSt3__118basic_stringstreamIcNS_11char_traitsIcEENS_9allocatorIcEEED1Ev @1269
    _ZNSt3__119basic_istringstreamIcNS_11char_traitsIcEENS_9allocatorIcEEEC1B8ne200100ERKNS_12basic_stringIcS2_S4_EEj @1270
    _ZNSt3__119basic_istringstreamIcNS_11char_traitsIcEENS_9allocatorIcEEED0Ev @1271
    _ZNSt3__119basic_istringstreamIcNS_11char_traitsIcEENS_9allocatorIcEEED1Ev @1272
    _ZNSt3__119basic_ostringstreamIcNS_11char_traitsIcEENS_9allocatorIcEEEC1B8ne200100Ev @1273
    _ZNSt3__119basic_ostringstreamIcNS_11char_traitsIcEENS_9allocatorIcEEED0Ev @1274
    _ZNSt3__119basic_ostringstreamIcNS_11char_traitsIcEENS_9allocatorIcEEED1Ev @1275
    _ZNSt3__119piecewise_constructE @1276 DATA
    _ZNSt3__120__throw_length_errorB8ne200100EPKc @1277
    _ZNSt3__122__tree_node_destructorINS_9allocatorINS_11__tree_nodeINS_12__value_typeINS_12basic_stringIcNS_11char_traitsIcEENS1_IcEEEEN6tribft16VerificationTaskEEEPvEEEEEclB8ne200100EPSD_ @1278
    _ZNSt3__124__put_character_sequenceB8ne200100IcNS_11char_traitsIcEEEERNS_13basic_ostreamIT_T0_EES7_PKS4_y @1279
    _ZNSt3__125__throw_bad_function_callB8ne200100Ev @1280
    _ZNSt3__127__tree_balance_after_insertB8ne200100IPNS_16__tree_node_baseIPvEEEEvT_S5_ @1281
    _ZNSt3__128__exception_guard_exceptionsINS_29_AllocatorDestroyRangeReverseINS_9allocatorIN6tribft11TransactionEEEPS4_EEED2B8ne200100Ev @1282
    _ZNSt3__128__exception_guard_exceptionsINS_29_AllocatorDestroyRangeReverseINS_9allocatorIN6tribft8VoteInfoEEEPS4_EEED2B8ne200100Ev @1283
    _ZNSt3__128__exception_guard_exceptionsINS_29_AllocatorDestroyRangeReverseINS_9allocatorIN6tribft9ShardInfoEEEPS4_EEED2B8ne200100Ev @1284
    _ZNSt3__128__exception_guard_exceptionsINS_29_AllocatorDestroyRangeReverseINS_9allocatorINS_12basic_stringIcNS_11char_traitsIcEENS2_IcEEEEEEPS7_EEED2B8ne200100Ev @1285
    _ZNSt3__128__exception_guard_exceptionsINS_6vectorIN6tribft8VoteInfoENS_9allocatorIS3_EEE16__destroy_vectorEED2B8ne200100Ev @1286
    _ZNSt3__128__exception_guard_exceptionsINS_6vectorINS_12basic_stringIcNS_11char_traitsIcEENS_9allocatorIcEEEENS5_IS7_EEE16__destroy_vectorEED2B8ne200100Ev @1287
    _ZNSt3__134__uninitialized_allocator_relocateB8ne200100INS_9allocatorIN6tribft11TransactionEEEPS3_EEvRT_T0_S8_S8_ @1288
    _ZNSt3__134__uninitialized_allocator_relocateB8ne200100INS_9allocatorIN6tribft8VoteInfoEEEPS3_EEvRT_T0_S8_S8_ @1289
    _ZNSt3__134__uninitialized_allocator_relocateB8ne200100INS_9allocatorIN6tribft9ShardInfoEEEPS3_EEvRT_T0_S8_S8_ @1290
    _ZNSt3__13mapIN5veins7ChannelEdNS_4lessIS2_EENS_9allocatorINS_4pairIKS2_dEEEEEC2B8ne200100ESt16initializer_listIS8_ERKS4_ @1291
    _ZNSt3__14endlB8ne200100IcNS_11char_traitsIcEEEERNS_13basic_ostreamIT_T0_EES7_ @1292
    _ZNSt3__14pairIKNS_12basic_stringIcNS_11char_traitsIcEENS_9allocatorIcEEEEN6tribft16ReputationRecordEEC2B8ne200100IJRS7_EJEJLy0EETpTnyJEEENS_21piecewise_construct_tERNS_5tupleIJDpT_EEERNSE_IJDpT0_EEENS_15__tuple_indicesIJXspT1_EEEENSN_IJXspT2_EEEE @1293
    _ZNSt3__14pairIKNS_12basic_stringIcNS_11char_traitsIcEENS_9allocatorIcEEEEN6tribft16VerificationTaskEEC2B8ne200100IJRS7_EJEJLy0EETpTnyJEEENS_21piecewise_construct_tERNS_5tupleIJDpT_EEERNSE_IJDpT0_EEENS_15__tuple_indicesIJXspT1_EEEENSN_IJXspT2_EEEE @1294
    _ZNSt3__16__treeINS_12__value_typeIN5veins7ChannelEdEENS_19__map_value_compareIS3_S4_NS_4lessIS3_EELb1EEENS_9allocatorIS4_EEE12__find_equalIS3_EERPNS_16__tree_node_baseIPvEENS_21__tree_const_iteratorIS4_PNS_11__tree_nodeIS4_SE_EExEERPNS_15__tree_end_nodeISG_EESH_RKT_ @1295
    _ZNSt3__16__treeINS_12__value_typeIN5veins7ChannelEdEENS_19__map_value_compareIS3_S4_NS_4lessIS3_EELb1EEENS_9allocatorIS4_EEE7destroyEPNS_11__tree_nodeIS4_PvEE @1296
    _ZNSt3__16__treeINS_12__value_typeIN6tribft14ConsensusPhaseENS2_17QuorumCertificateEEENS_19__map_value_compareIS3_S5_NS_4lessIS3_EELb1EEENS_9allocatorIS5_EEE16__construct_nodeIJRKNS_21piecewise_construct_tENS_5tupleIJOS3_EEENSH_IJEEEEEENS_10unique_ptrINS_11__tree_nodeIS5_PvEENS_22__tree_node_destructorINSA_ISO_EEEEEEDpOT_ @1297
    _ZNSt3__16__treeINS_12__value_typeIN6tribft14ConsensusPhaseENS2_17QuorumCertificateEEENS_19__map_value_compareIS3_S5_NS_4lessIS3_EELb1EEENS_9allocatorIS5_EEE16__construct_nodeIJRKNS_21piecewise_construct_tENS_5tupleIJRKS3_EEENSH_IJEEEEEENS_10unique_ptrINS_11__tree_nodeIS5_PvEENS_22__tree_node_destructorINSA_ISP_EEEEEEDpOT_ @1298
    _ZNSt3__16__treeINS_12__value_typeIN6tribft14ConsensusPhaseENS2_17QuorumCertificateEEENS_19__map_value_compareIS3_S5_NS_4lessIS3_EELb1EEENS_9allocatorIS5_EEE7destroyEPNS_11__tree_nodeIS5_PvEE @1299
    _ZNSt3__16__treeINS_12__value_typeIN6tribft14ConsensusPhaseENS_6vectorINS2_8VoteInfoENS_9allocatorIS5_EEEEEENS_19__map_value_compareIS3_S9_NS_4lessIS3_EELb1EEENS6_IS9_EEE7destroyEPNS_11__tree_nodeIS9_PvEE @1300
    _ZNSt3__16__treeINS_12__value_typeINS_12basic_stringIcNS_11char_traitsIcEENS_9allocatorIcEEEEN6tribft12PendingEventEEENS_19__map_value_compareIS7_SA_NS_4lessIS7_EELb1EEENS5_ISA_EEE25__emplace_unique_key_argsIS7_JRKNS_21piecewise_construct_tENS_5tupleIJRKS7_EEENSL_IJEEEEEENS_4pairINS_15__tree_iteratorISA_PNS_11__tree_nodeISA_PvEExEEbEERKT_DpOT0_ @1301
    _ZNSt3__16__treeINS_12__value_typeINS_12basic_stringIcNS_11char_traitsIcEENS_9allocatorIcEEEEN6tribft12PendingEventEEENS_19__map_value_compareIS7_SA_NS_4lessIS7_EELb1EEENS5_ISA_EEE4findIS7_EENS_15__tree_iteratorISA_PNS_11__tree_nodeISA_PvEExEERKT_ @1302
    _ZNSt3__16__treeINS_12__value_typeINS_12basic_stringIcNS_11char_traitsIcEENS_9allocatorIcEEEEN6tribft16ReputationRecordEEENS_19__map_value_compareIS7_SA_NS_4lessIS7_EELb1EEENS5_ISA_EEE25__emplace_unique_key_argsIS7_JRKNS_21piecewise_construct_tENS_5tupleIJRKS7_EEENSL_IJEEEEEENS_4pairINS_15__tree_iteratorISA_PNS_11__tree_nodeISA_PvEExEEbEERKT_DpOT0_ @1303
    _ZNSt3__16__treeINS_12__value_typeINS_12basic_stringIcNS_11char_traitsIcEENS_9allocatorIcEEEEN6tribft16ReputationRecordEEENS_19__map_value_compareIS7_SA_NS_4lessIS7_EELb1EEENS5_ISA_EEE4findIS7_EENS_15__tree_iteratorISA_PNS_11__tree_nodeISA_PvEExEERKT_ @1304
    _ZNSt3__16__treeINS_12__value_typeINS_12basic_stringIcNS_11char_traitsIcEENS_9allocatorIcEEEEN6tribft16ReputationRecordEEENS_19__map_value_compareIS7_SA_NS_4lessIS7_EELb1EEENS5_ISA_EEE5eraseENS_21__tree_const_iteratorISA_PNS_11__tree_nodeISA_PvEExEE @1305
    _ZNSt3__16__treeINS_12__value_typeINS_12basic_stringIcNS_11char_traitsIcEENS_9allocatorIcEEEEN6tribft16ReputationRecordEEENS_19__map_value_compareIS7_SA_NS_4lessIS7_EELb1EEENS5_ISA_EEE7destroyEPNS_11__tree_nodeISA_PvEE @1306
    _ZNSt3__16__treeINS_12__value_typeINS_12basic_stringIcNS_11char_traitsIcEENS_9allocatorIcEEEEN6tribft16VerificationTaskEEENS_19__map_value_compareIS7_SA_NS_4lessIS7_EELb1EEENS5_ISA_EEE25__emplace_unique_key_argsIS7_JRKNS_21piecewise_construct_tENS_5tupleIJRKS7_EEENSL_IJEEEEEENS_4pairINS_15__tree_iteratorISA_PNS_11__tree_nodeISA_PvEExEEbEERKT_DpOT0_ @1307
    _ZNSt3__16__treeINS_12__value_typeINS_12basic_stringIcNS_11char_traitsIcEENS_9allocatorIcEEEEN6tribft16VerificationTaskEEENS_19__map_value_compareIS7_SA_NS_4lessIS7_EELb1EEENS5_ISA_EEE4findIS7_EENS_15__tree_iteratorISA_PNS_11__tree_nodeISA_PvEExEERKT_ @1308
    _ZNSt3__16__treeINS_12__value_typeINS_12basic_stringIcNS_11char_traitsIcEENS_9allocatorIcEEEEN6tribft16VerificationTaskEEENS_19__map_value_compareIS7_SA_NS_4lessIS7_EELb1EEENS5_ISA_EEE5eraseENS_21__tree_const_iteratorISA_PNS_11__tree_nodeISA_PvEExEE @1309
    _ZNSt3__16__treeINS_12__value_typeINS_12basic_stringIcNS_11char_traitsIcEENS_9allocatorIcEEEEN6tribft8GeoCoordEEENS_19__map_value_compareIS7_SA_NS_4lessIS7_EELb1EEENS5_ISA_EEE25__emplace_unique_key_argsIS7_JRKNS_21piecewise_construct_tENS_5tupleIJRKS7_EEENSL_IJEEEEEENS_4pairINS_15__tree_iteratorISA_PNS_11__tree_nodeISA_PvEExEEbEERKT_DpOT0_ @1310
    _ZNSt3__16__treeINS_12__value_typeINS_12basic_stringIcNS_11char_traitsIcEENS_9allocatorIcEEEEN6tribft8GeoCoordEEENS_19__map_value_compareIS7_SA_NS_4lessIS7_EELb1EEENS5_ISA_EEE4findIS7_EENS_15__tree_iteratorISA_PNS_11__tree_nodeISA_PvEExEERKT_ @1311
    _ZNSt3__16__treeINS_12__value_typeINS_12basic_stringIcNS_11char_traitsIcEENS_9allocatorIcEEEEN6tribft8NodeRoleEEENS_19__map_value_compareIS7_SA_NS_4lessIS7_EELb1EEENS5_ISA_EEE25__emplace_unique_key_argsIS7_JRKNS_21piecewise_construct_tENS_5tupleIJRKS7_EEENSL_IJEEEEEENS_4pairINS_15__tree_iteratorISA_PNS_11__tree_nodeISA_PvEExEEbEERKT_DpOT0_ @1312
    _ZNSt3__16__treeINS_12__value_typeINS_12basic_stringIcNS_11char_traitsIcEENS_9allocatorIcEEEEN6tribft8NodeRoleEEENS_19__map_value_compareIS7_SA_NS_4lessIS7_EELb1EEENS5_ISA_EEE4findIS7_EENS_15__tree_iteratorISA_PNS_11__tree_nodeISA_PvEExEERKT_ @1313
    _ZNSt3__16__treeINS_12__value_typeINS_12basic_stringIcNS_11char_traitsIcEENS_9allocatorIcEEEEN6tribft8NodeRoleEEENS_19__map_value_compareIS7_SA_NS_4lessIS7_EELb1EEENS5_ISA_EEE7destroyEPNS_11__tree_nodeISA_PvEE @1314
    _ZNSt3__16__treeINS_12__value_typeINS_12basic_stringIcNS_11char_traitsIcEENS_9allocatorIcEEEENS_3mapIN6tribft14ConsensusPhaseENS_6vectorINS9_8VoteInfoENS5_ISC_EEEENS_4lessISA_EENS5_INS_4pairIKSA_SE_EEEEEEEENS_19__map_value_compareIS7_SM_NSF_IS7_EELb1EEENS5_ISM_EEE25__emplace_unique_key_argsIS7_JRKNS_21piecewise_construct_tENS_5tupleIJRKS7_EEENSW_IJEEEEEENSH_INS_15__tree_iteratorISM_PNS_11__tree_nodeISM_PvEExEEbEERKT_DpOT0_ @1315
    _ZNSt3__16__treeINS_12__value_typeINS_12basic_stringIcNS_11char_traitsIcEENS_9allocatorIcEEEENS_3mapIN6tribft14ConsensusPhaseENS_6vectorINS9_8VoteInfoENS5_ISC_EEEENS_4lessISA_EENS5_INS_4pairIKSA_SE_EEEEEEEENS_19__map_value_compareIS7_SM_NSF_IS7_EELb1EEENS5_ISM_EEE4findIS7_EENS_15__tree_iteratorISM_PNS_11__tree_nodeISM_PvEExEERKT_ @1316
    _ZNSt3__16__treeINS_12__value_typeINS_12basic_stringIcNS_11char_traitsIcEENS_9allocatorIcEEEENS_3mapIN6tribft14ConsensusPhaseENS_6vectorINS9_8VoteInfoENS5_ISC_EEEENS_4lessISA_EENS5_INS_4pairIKSA_SE_EEEEEEEENS_19__map_value_compareIS7_SM_NSF_IS7_EELb1EEENS5_ISM_EEE7destroyEPNS_11__tree_nodeISM_PvEE @1317
    _ZNSt3__16__treeINS_12__value_typeINS_12basic_stringIcNS_11char_traitsIcEENS_9allocatorIcEEEEdEENS_19__map_value_compareIS7_S8_NS_4lessIS7_EELb1EEENS5_IS8_EEE25__emplace_unique_key_argsIS7_JRKNS_21piecewise_construct_tENS_5tupleIJRKS7_EEENSJ_IJEEEEEENS_4pairINS_15__tree_iteratorIS8_PNS_11__tree_nodeIS8_PvEExEEbEERKT_DpOT0_ @1318
    _ZNSt3__16__treeINS_12__value_typeINS_12basic_stringIcNS_11char_traitsIcEENS_9allocatorIcEEEEdEENS_19__map_value_compareIS7_S8_NS_4lessIS7_EELb1EEENS5_IS8_EEE4findIS7_EENS_15__tree_iteratorIS8_PNS_11__tree_nodeIS8_PvEExEERKT_ @1319
    _ZNSt3__16__treeINS_12__value_typeINS_12basic_stringIcNS_11char_traitsIcEENS_9allocatorIcEEEEiEENS_19__map_value_compareIS7_S8_NS_4lessIS7_EELb1EEENS5_IS8_EEE25__emplace_unique_key_argsIS7_JRKNS_21piecewise_construct_tENS_5tupleIJRKS7_EEENSJ_IJEEEEEENS_4pairINS_15__tree_iteratorIS8_PNS_11__tree_nodeIS8_PvEExEEbEERKT_DpOT0_ @1320
    _ZNSt3__16__treeINS_12__value_typeINS_12basic_stringIcNS_11char_traitsIcEENS_9allocatorIcEEEEiEENS_19__map_value_compareIS7_S8_NS_4lessIS7_EELb1EEENS5_IS8_EEE4findIS7_EENS_15__tree_iteratorIS8_PNS_11__tree_nodeIS8_PvEExEERKT_ @1321
    _ZNSt3__16__treeINS_12__value_typeINS_12basic_stringIcNS_11char_traitsIcEENS_9allocatorIcEEEEyEENS_19__map_value_compareIS7_S8_NS_4lessIS7_EELb1EEENS5_IS8_EEE25__emplace_unique_key_argsIS7_JRKNS_21piecewise_construct_tENS_5tupleIJRKS7_EEENSJ_IJEEEEEENS_4pairINS_15__tree_iteratorIS8_PNS_11__tree_nodeIS8_PvEExEEbEERKT_DpOT0_ @1322
    _ZNSt3__16__treeINS_12__value_typeIiN6tribft9ShardInfoEEENS_19__map_value_compareIiS4_NS_4lessIiEELb1EEENS_9allocatorIS4_EEE14__erase_uniqueIiEEyRKT_ @1323
    _ZNSt3__16__treeINS_12__value_typeIiN6tribft9ShardInfoEEENS_19__map_value_compareIiS4_NS_4lessIiEELb1EEENS_9allocatorIS4_EEE16__construct_nodeIJRKNS_21piecewise_construct_tENS_5tupleIJRKiEEENSG_IJEEEEEENS_10unique_ptrINS_11__tree_nodeIS4_PvEENS_22__tree_node_destructorINS9_ISO_EEEEEEDpOT_ @1324
    _ZNSt3__16__treeINS_12__value_typeIyN6tribft11BlockHeaderEEENS_19__map_value_compareIyS4_NS_4lessIyEELb1EEENS_9allocatorIS4_EEE25__emplace_unique_key_argsIyJRKNS_21piecewise_construct_tENS_5tupleIJRKyEEENSG_IJEEEEEENS_4pairINS_15__tree_iteratorIS4_PNS_11__tree_nodeIS4_PvEExEEbEERKT_DpOT0_ @1325
    _ZNSt3__16__treeINS_12__value_typeIyN6tribft11BlockHeaderEEENS_19__map_value_compareIyS4_NS_4lessIyEELb1EEENS_9allocatorIS4_EEE5eraseENS_21__tree_const_iteratorIS4_PNS_11__tree_nodeIS4_PvEExEE @1326
    _ZNSt3__16__treeINS_12__value_typeIyN6tribft11BlockHeaderEEENS_19__map_value_compareIyS4_NS_4lessIyEELb1EEENS_9allocatorIS4_EEE7destroyEPNS_11__tree_nodeIS4_PvEE @1327
    _ZNSt3__16__treeINS_12__value_typeIyN6tribft5BlockEEENS_19__map_value_compareIyS4_NS_4lessIyEELb1EEENS_9allocatorIS4_EEE25__emplace_unique_key_argsIyJRKNS_21piecewise_construct_tENS_5tupleIJRKyEEENSG_IJEEEEEENS_4pairINS_15__tree_iteratorIS4_PNS_11__tree_nodeIS4_PvEExEEbEERKT_DpOT0_ @1328
    _ZNSt3__16__treeINS_12__value_typeIyN6tribft5BlockEEENS_19__map_value_compareIyS4_NS_4lessIyEELb1EEENS_9allocatorIS4_EEE7destroyEPNS_11__tree_nodeIS4_PvEE @1329
    _ZNSt3__16__treeINS_12basic_stringIcNS_11char_traitsIcEENS_9allocatorIcEEEENS_4lessIS6_EENS4_IS6_EEE12__find_equalIS6_EERPNS_16__tree_node_baseIPvEENS_21__tree_const_iteratorIS6_PNS_11__tree_nodeIS6_SD_EExEERPNS_15__tree_end_nodeISF_EESG_RKT_ @1330
    _ZNSt3__16__treeINS_12basic_stringIcNS_11char_traitsIcEENS_9allocatorIcEEEENS_4lessIS6_EENS4_IS6_EEE14__assign_multiINS_21__tree_const_iteratorIS6_PNS_11__tree_nodeIS6_PvEExEEEEvT_SI_ @1331
    _ZNSt3__16__treeINS_12basic_stringIcNS_11char_traitsIcEENS_9allocatorIcEEEENS_4lessIS6_EENS4_IS6_EEE15__emplace_multiIJRKS6_EEENS_15__tree_iteratorIS6_PNS_11__tree_nodeIS6_PvEExEEDpOT_ @1332
    _ZNSt3__16__treeINS_12basic_stringIcNS_11char_traitsIcEENS_9allocatorIcEEEENS_4lessIS6_EENS4_IS6_EEE18_DetachedTreeCacheD2B8ne200100Ev @1333
    _ZNSt3__16__treeINS_12basic_stringIcNS_11char_traitsIcEENS_9allocatorIcEEEENS_4lessIS6_EENS4_IS6_EEE19__node_insert_multiEPNS_11__tree_nodeIS6_PvEE @1334
    _ZNSt3__16__treeINS_12basic_stringIcNS_11char_traitsIcEENS_9allocatorIcEEEENS_4lessIS6_EENS4_IS6_EEE25__emplace_unique_key_argsIS6_JRKS6_EEENS_4pairINS_15__tree_iteratorIS6_PNS_11__tree_nodeIS6_PvEExEEbEERKT_DpOT0_ @1335
    _ZNSt3__16__treeINS_12basic_stringIcNS_11char_traitsIcEENS_9allocatorIcEEEENS_4lessIS6_EENS4_IS6_EEE30__emplace_hint_unique_key_argsIS6_JRKS6_EEENS_4pairINS_15__tree_iteratorIS6_PNS_11__tree_nodeIS6_PvEExEEbEENS_21__tree_const_iteratorIS6_SJ_xEERKT_DpOT0_ @1336
    _ZNSt3__16__treeINS_12basic_stringIcNS_11char_traitsIcEENS_9allocatorIcEEEENS_4lessIS6_EENS4_IS6_EEE4findIS6_EENS_15__tree_iteratorIS6_PNS_11__tree_nodeIS6_PvEExEERKT_ @1337
    _ZNSt3__16__treeINS_12basic_stringIcNS_11char_traitsIcEENS_9allocatorIcEEEENS_4lessIS6_EENS4_IS6_EEE7destroyEPNS_11__tree_nodeIS6_PvEE @1338
    _ZNSt3__16vectorIN6tribft11TransactionENS_9allocatorIS2_EEE13__vdeallocateEv @1339
    _ZNSt3__16vectorIN6tribft11TransactionENS_9allocatorIS2_EEE16__destroy_vectorclB8ne200100Ev @1340
    _ZNSt3__16vectorIN6tribft11TransactionENS_9allocatorIS2_EEE16__init_with_sizeB8ne200100INS_11__wrap_iterIPS2_EES9_EEvT_T0_y @1341
    _ZNSt3__16vectorIN6tribft11TransactionENS_9allocatorIS2_EEE16__init_with_sizeB8ne200100IPS2_S7_EEvT_T0_y @1342
    _ZNSt3__16vectorIN6tribft11TransactionENS_9allocatorIS2_EEE18__assign_with_sizeB8ne200100IPS2_S7_EEvT_T0_x @1343
    _ZNSt3__16vectorIN6tribft11TransactionENS_9allocatorIS2_EEE20__throw_length_errorB8ne200100Ev @1344
    _ZNSt3__16vectorIN6tribft11TransactionENS_9allocatorIS2_EEE24__emplace_back_slow_pathIJRKS2_EEEPS2_DpOT_ @1345
    _ZNSt3__16vectorIN6tribft11TransactionENS_9allocatorIS2_EEE24__emplace_back_slow_pathIJS2_EEEPS2_DpOT_ @1346
    _ZNSt3__16vectorIN6tribft11TransactionENS_9allocatorIS2_EEE5eraseENS_11__wrap_iterIPKS2_EES9_ @1347
    _ZNSt3__16vectorIN6tribft11TransactionENS_9allocatorIS2_EEE9push_backB8ne200100ERKS2_ @1348
    _ZNSt3__16vectorIN6tribft15ReputationEventENS_9allocatorIS2_EEE18__assign_with_sizeB8ne200100IPS2_S7_EEvT_T0_x @1349
    _ZNSt3__16vectorIN6tribft15ReputationEventENS_9allocatorIS2_EEE20__throw_length_errorB8ne200100Ev @1350
    _ZNSt3__16vectorIN6tribft15ReputationEventENS_9allocatorIS2_EEE9push_backB8ne200100ERKS2_ @1351
    _ZNSt3__16vectorIN6tribft5BlockENS_9allocatorIS2_EEE20__throw_length_errorB8ne200100Ev @1352
    _ZNSt3__16vectorIN6tribft5BlockENS_9allocatorIS2_EEE24__emplace_back_slow_pathIJRKS2_EEEPS2_DpOT_ @1353
    _ZNSt3__16vectorIN6tribft8VoteInfoENS_9allocatorIS2_EEE16__init_with_sizeB8ne200100IPS2_S7_EEvT_T0_y @1354
    _ZNSt3__16vectorIN6tribft8VoteInfoENS_9allocatorIS2_EEE18__assign_with_sizeB8ne200100IPS2_S7_EEvT_T0_x @1355
    _ZNSt3__16vectorIN6tribft8VoteInfoENS_9allocatorIS2_EEE20__throw_length_errorB8ne200100Ev @1356
    _ZNSt3__16vectorIN6tribft8VoteInfoENS_9allocatorIS2_EEE24__emplace_back_slow_pathIJRKS2_EEEPS2_DpOT_ @1357
    _ZNSt3__16vectorIN6tribft8VoteInfoENS_9allocatorIS2_EEED2B8ne200100Ev @1358
    _ZNSt3__16vectorIN6tribft9ShardInfoENS_9allocatorIS2_EEE20__throw_length_errorB8ne200100Ev @1359
    _ZNSt3__16vectorIN6tribft9ShardInfoENS_9allocatorIS2_EEE24__emplace_back_slow_pathIJRKS2_EEEPS2_DpOT_ @1360
    _ZNSt3__16vectorIN6tribft9ShardInfoENS_9allocatorIS2_EEE7reserveEy @1361
    _ZNSt3__16vectorIN6tribft9ShardInfoENS_9allocatorIS2_EEED2B8ne200100Ev @1362
    _ZNSt3__16vectorINS_12basic_stringIcNS_11char_traitsIcEENS_9allocatorIcEEEENS4_IS6_EEE16__init_with_sizeB8ne200100IPS6_SA_EEvT_T0_y @1363
    _ZNSt3__16vectorINS_12basic_stringIcNS_11char_traitsIcEENS_9allocatorIcEEEENS4_IS6_EEE18__assign_with_sizeB8ne200100IPS6_SA_EEvT_T0_x @1364
    _ZNSt3__16vectorINS_12basic_stringIcNS_11char_traitsIcEENS_9allocatorIcEEEENS4_IS6_EEE20__throw_length_errorB8ne200100Ev @1365
    _ZNSt3__16vectorINS_12basic_stringIcNS_11char_traitsIcEENS_9allocatorIcEEEENS4_IS6_EEE24__emplace_back_slow_pathIJRKS6_EEEPS6_DpOT_ @1366
    _ZNSt3__16vectorINS_12basic_stringIcNS_11char_traitsIcEENS_9allocatorIcEEEENS4_IS6_EEED2B8ne200100Ev @1367
    _ZNSt3__16vectorINS_4pairINS_12basic_stringIcNS_11char_traitsIcEENS_9allocatorIcEEEEdEENS5_IS8_EEE20__throw_length_errorB8ne200100Ev @1368
    _ZNSt3__16vectorINS_4pairINS_12basic_stringIcNS_11char_traitsIcEENS_9allocatorIcEEEEdEENS5_IS8_EEED2B8ne200100Ev @1369
    _ZNSt3__16vectorINS_4pairIdNS_12basic_stringIcNS_11char_traitsIcEENS_9allocatorIcEEEEEENS5_IS8_EEE20__throw_length_errorB8ne200100Ev @1370
    _ZNSt3__16vectorINS_4pairIdNS_12basic_stringIcNS_11char_traitsIcEENS_9allocatorIcEEEEEENS5_IS8_EEED2B8ne200100Ev @1371
    _ZNSt3__16vectorINS_4pairIyNS_12basic_stringIcNS_11char_traitsIcEENS_9allocatorIcEEEEEENS5_IS8_EEE20__throw_length_errorB8ne200100Ev @1372
    _ZNSt3__16vectorINS_4pairIyNS_12basic_stringIcNS_11char_traitsIcEENS_9allocatorIcEEEEEENS5_IS8_EEED2B8ne200100Ev @1373
    _ZNSt3__16vectorIiNS_9allocatorIiEEE20__throw_length_errorB8ne200100Ev @1374
    _ZNSt3__17getlineB8ne200100IcNS_11char_traitsIcEENS_9allocatorIcEEEERNS_13basic_istreamIT_T0_EES9_RNS_12basic_stringIS6_S7_T1_EES6_ @1375
    _ZNSt3__19allocatorIN6tribft9ShardInfoEE9constructB8ne200100IS2_JRKS2_EEEvPT_DpOT0_ @1376
    _ZNSt3__1lsB8ne200100IcNS_11char_traitsIcEENS_9allocatorIcEEEERNS_13basic_ostreamIT_T0_EES9_RKNS_12basic_stringIS6_S7_T1_EE @1377
    _ZNSt3__1plB8ne200100IcNS_11char_traitsIcEENS_9allocatorIcEEEENS_12basic_stringIT_T0_T1_EERKS9_SB_ @1378
    _ZSt28__throw_bad_array_new_lengthB8ne200100v @1379
    _ZTCNSt3__118basic_stringstreamIcNS_11char_traitsIcEENS_9allocatorIcEEEE0_NS_13basic_istreamIcS2_EE @1380 DATA
    _ZTCNSt3__118basic_stringstreamIcNS_11char_traitsIcEENS_9allocatorIcEEEE0_NS_14basic_iostreamIcS2_EE @1381 DATA
    _ZTCNSt3__118basic_stringstreamIcNS_11char_traitsIcEENS_9allocatorIcEEEE16_NS_13basic_ostreamIcS2_EE @1382 DATA
    _ZTCNSt3__119basic_istringstreamIcNS_11char_traitsIcEENS_9allocatorIcEEEE0_NS_13basic_istreamIcS2_EE @1383 DATA
    _ZTCNSt3__119basic_ostringstreamIcNS_11char_traitsIcEENS_9allocatorIcEEEE0_NS_13basic_ostreamIcS2_EE @1384 DATA
    _ZTIN5veins10BaseModuleE @1385 DATA
    _ZTIN5veins12BaseMobilityE @1386 DATA
    _ZTIN5veins13BaseApplLayerE @1387 DATA
    _ZTIN5veins13BatteryAccessE @1388 DATA
    _ZTIN5veins15BaseFrame1609_4E @1389 DATA
    _ZTIN5veins17DemoBaseApplLayerE @1390 DATA
    _ZTIN5veins5CoordE @1391 DATA
    _ZTIN5veins9BaseLayerE @1392 DATA
    _ZTIN6tribft11MessageTypeE @1393 DATA
    _ZTIN6tribft11VoteMessageE @1394 DATA
    _ZTIN6tribft13DecideMessageE @1395 DATA
    _ZTIN6tribft13TriBFTMessageE @1396 DATA
    _ZTIN6tribft14ShardLevelTypeE @1397 DATA
    _ZTIN6tribft15ProposalMessageE @1398 DATA
    _ZTIN6tribft16HeartbeatMessageE @1399 DATA
    _ZTIN6tribft16ShardJoinRequestE @1400 DATA
    _ZTIN6tribft17ShardJoinResponseE @1401 DATA
    _ZTIN6tribft17ShardLeaveMessageE @1402 DATA
    _ZTIN6tribft17ViewChangeMessageE @1403 DATA
    _ZTIN6tribft18ConsensusPhaseTypeE @1404 DATA
    _ZTIN6tribft18ShardUpdateMessageE @1405 DATA
    _ZTIN6tribft18TestMinimalMessageE @1406 DATA
    _ZTIN6tribft18TransactionMessageE @1407 DATA
    _ZTIN6tribft19CrossShardTxMessageE @1408 DATA
    _ZTIN6tribft19PhaseAdvanceMessageE @1409 DATA
    _ZTIN6tribft21LeaderElectionMessageE @1410 DATA
    _ZTIN6tribft21VoteMessageDescriptorE @1411 DATA
    _ZTIN6tribft22ReputationQueryMessageE @1412 DATA
    _ZTIN6tribft23CrossShardCommitMessageE @1413 DATA
    _ZTIN6tribft23DecideMessageDescriptorE @1414 DATA
    _ZTIN6tribft23ReputationUpdateMessageE @1415 DATA
    _ZTIN6tribft23TriBFTMessageDescriptorE @1416 DATA
    _ZTIN6tribft25ProposalMessageDescriptorE @1417 DATA
    _ZTIN6tribft25ReputationResponseMessageE @1418 DATA
    _ZTIN6tribft26HeartbeatMessageDescriptorE @1419 DATA
    _ZTIN6tribft26ShardJoinRequestDescriptorE @1420 DATA
    _ZTIN6tribft27ShardJoinResponseDescriptorE @1421 DATA
    _ZTIN6tribft27ShardLeaveMessageDescriptorE @1422 DATA
    _ZTIN6tribft27ViewChangeMessageDescriptorE @1423 DATA
    _ZTIN6tribft28ShardUpdateMessageDescriptorE @1424 DATA
    _ZTIN6tribft28TestMinimalMessageDescriptorE @1425 DATA
    _ZTIN6tribft28TransactionMessageDescriptorE @1426 DATA
    _ZTIN6tribft29CrossShardTxMessageDescriptorE @1427 DATA
    _ZTIN6tribft29PhaseAdvanceMessageDescriptorE @1428 DATA
    _ZTIN6tribft31LeaderElectionMessageDescriptorE @1429 DATA
    _ZTIN6tribft32ReputationQueryMessageDescriptorE @1430 DATA
    _ZTIN6tribft33CrossShardCommitMessageDescriptorE @1431 DATA
    _ZTIN6tribft33ReputationUpdateMessageDescriptorE @1432 DATA
    _ZTIN6tribft35ReputationResponseMessageDescriptorE @1433 DATA
    _ZTIN6tribft9TriBFTAppE @1434 DATA
    _ZTIN7omnetpp10cComponentE @1435 DATA
    _ZTIN7omnetpp10cExceptionE @1436 DATA
    _ZTIN7omnetpp10cIListenerE @1437 DATA
    _ZTIN7omnetpp10cSoftOwnerE @1438 DATA
    _ZTIN7omnetpp11noncopyableE @1439 DATA
    _ZTIN7omnetpp12cNamedObjectE @1440 DATA
    _ZTIN7omnetpp12cOwnedObjectE @1441 DATA
    _ZTIN7omnetpp13cRuntimeErrorE @1442 DATA
    _ZTIN7omnetpp13cSimpleModuleE @1443 DATA
    _ZTIN7omnetpp16cClassDescriptorE @1444 DATA
    _ZTIN7omnetpp23cNoncopyableOwnedObjectE @1445 DATA
    _ZTIN7omnetpp6cEventE @1446 DATA
    _ZTIN7omnetpp7cModuleE @1447 DATA
    _ZTIN7omnetpp7cObjectE @1448 DATA
    _ZTIN7omnetpp7cPacketE @1449 DATA
    _ZTIN7omnetpp8cMessageE @1450 DATA
    _ZTIN7omnetpp9cListenerE @1451 DATA
    _ZTINSt3__110__function6__baseIFvRKN6tribft17ConsensusProposalEEEE @1452 DATA
    _ZTINSt3__110__function6__baseIFvRKN6tribft5BlockEEEE @1453 DATA
    _ZTINSt3__110__function6__baseIFvRKN6tribft8VoteInfoEEEE @1454 DATA
    _ZTINSt3__110__function6__baseIFvRKNS_12basic_stringIcNS_11char_traitsIcEENS_9allocatorIcEEEEEEE @1455 DATA
    _ZTINSt3__110__function6__baseIFvRKNS_12basic_stringIcNS_11char_traitsIcEENS_9allocatorIcEEEEN6tribft14ConsensusPhaseESB_EEE @1456 DATA
    _ZTINSt3__113basic_istreamIcNS_11char_traitsIcEEEE @1457 DATA
    _ZTINSt3__113basic_ostreamIcNS_11char_traitsIcEEEE @1458 DATA
    _ZTINSt3__114basic_iostreamIcNS_11char_traitsIcEEEE @1459 DATA
    _ZTINSt3__115basic_streambufIcNS_11char_traitsIcEEEE @1460 DATA
    _ZTINSt3__115basic_stringbufIcNS_11char_traitsIcEENS_9allocatorIcEEEE @1461 DATA
    _ZTINSt3__117bad_function_callE @1462 DATA
    _ZTINSt3__118basic_stringstreamIcNS_11char_traitsIcEENS_9allocatorIcEEEE @1463 DATA
    _ZTINSt3__119basic_istringstreamIcNS_11char_traitsIcEENS_9allocatorIcEEEE @1464 DATA
    _ZTINSt3__119basic_ostringstreamIcNS_11char_traitsIcEENS_9allocatorIcEEEE @1465 DATA
    _ZTINSt3__18ios_baseE @1466 DATA
    _ZTINSt3__19basic_iosIcNS_11char_traitsIcEEEE @1467 DATA
    _ZTIPN6tribft11VoteMessageE @1468 DATA
    _ZTIPN6tribft13DecideMessageE @1469 DATA
    _ZTIPN6tribft13TriBFTMessageE @1470 DATA
    _ZTIPN6tribft15ProposalMessageE @1471 DATA
    _ZTIPN6tribft16HeartbeatMessageE @1472 DATA
    _ZTIPN6tribft16ShardJoinRequestE @1473 DATA
    _ZTIPN6tribft17ShardJoinResponseE @1474 DATA
    _ZTIPN6tribft17ShardLeaveMessageE @1475 DATA
    _ZTIPN6tribft17ViewChangeMessageE @1476 DATA
    _ZTIPN6tribft18ShardUpdateMessageE @1477 DATA
    _ZTIPN6tribft18TestMinimalMessageE @1478 DATA
    _ZTIPN6tribft18TransactionMessageE @1479 DATA
    _ZTIPN6tribft19CrossShardTxMessageE @1480 DATA
    _ZTIPN6tribft19PhaseAdvanceMessageE @1481 DATA
    _ZTIPN6tribft21LeaderElectionMessageE @1482 DATA
    _ZTIPN6tribft22ReputationQueryMessageE @1483 DATA
    _ZTIPN6tribft23CrossShardCommitMessageE @1484 DATA
    _ZTIPN6tribft23ReputationUpdateMessageE @1485 DATA
    _ZTIPN6tribft25ReputationResponseMessageE @1486 DATA
    _ZTIPN7omnetpp7cObjectE @1487 DATA
    _ZTISt11logic_error @1488 DATA
    _ZTISt12length_error @1489 DATA
    _ZTISt20bad_array_new_length @1490 DATA
    _ZTISt9bad_alloc @1491 DATA
    _ZTISt9exception @1492 DATA
    _ZTSN5veins10BaseModuleE @1493 DATA
    _ZTSN5veins12BaseMobilityE @1494 DATA
    _ZTSN5veins13BaseApplLayerE @1495 DATA
    _ZTSN5veins13BatteryAccessE @1496 DATA
    _ZTSN5veins15BaseFrame1609_4E @1497 DATA
    _ZTSN5veins17DemoBaseApplLayerE @1498 DATA
    _ZTSN5veins5CoordE @1499 DATA
    _ZTSN5veins9BaseLayerE @1500 DATA
    _ZTSN6tribft11MessageTypeE @1501 DATA
    _ZTSN6tribft11VoteMessageE @1502 DATA
    _ZTSN6tribft13DecideMessageE @1503 DATA
    _ZTSN6tribft13TriBFTMessageE @1504 DATA
    _ZTSN6tribft14ShardLevelTypeE @1505 DATA
    _ZTSN6tribft15ProposalMessageE @1506 DATA
    _ZTSN6tribft16HeartbeatMessageE @1507 DATA
    _ZTSN6tribft16ShardJoinRequestE @1508 DATA
    _ZTSN6tribft17ShardJoinResponseE @1509 DATA
    _ZTSN6tribft17ShardLeaveMessageE @1510 DATA
    _ZTSN6tribft17ViewChangeMessageE @1511 DATA
    _ZTSN6tribft18ConsensusPhaseTypeE @1512 DATA
    _ZTSN6tribft18ShardUpdateMessageE @1513 DATA
    _ZTSN6tribft18TestMinimalMessageE @1514 DATA
    _ZTSN6tribft18TransactionMessageE @1515 DATA
    _ZTSN6tribft19CrossShardTxMessageE @1516 DATA
    _ZTSN6tribft19PhaseAdvanceMessageE @1517 DATA
    _ZTSN6tribft21LeaderElectionMessageE @1518 DATA
    _ZTSN6tribft21VoteMessageDescriptorE @1519 DATA
    _ZTSN6tribft22ReputationQueryMessageE @1520 DATA
    _ZTSN6tribft23CrossShardCommitMessageE @1521 DATA
    _ZTSN6tribft23DecideMessageDescriptorE @1522 DATA
    _ZTSN6tribft23ReputationUpdateMessageE @1523 DATA
    _ZTSN6tribft23TriBFTMessageDescriptorE @1524 DATA
    _ZTSN6tribft25ProposalMessageDescriptorE @1525 DATA
    _ZTSN6tribft25ReputationResponseMessageE @1526 DATA
    _ZTSN6tribft26HeartbeatMessageDescriptorE @1527 DATA
    _ZTSN6tribft26ShardJoinRequestDescriptorE @1528 DATA
    _ZTSN6tribft27ShardJoinResponseDescriptorE @1529 DATA
    _ZTSN6tribft27ShardLeaveMessageDescriptorE @1530 DATA
    _ZTSN6tribft27ViewChangeMessageDescriptorE @1531 DATA
    _ZTSN6tribft28ShardUpdateMessageDescriptorE @1532 DATA
    _ZTSN6tribft28TestMinimalMessageDescriptorE @1533 DATA
    _ZTSN6tribft28TransactionMessageDescriptorE @1534 DATA
    _ZTSN6tribft29CrossShardTxMessageDescriptorE @1535 DATA
    _ZTSN6tribft29PhaseAdvanceMessageDescriptorE @1536 DATA
    _ZTSN6tribft31LeaderElectionMessageDescriptorE @1537 DATA
    _ZTSN6tribft32ReputationQueryMessageDescriptorE @1538 DATA
    _ZTSN6tribft33CrossShardCommitMessageDescriptorE @1539 DATA
    _ZTSN6tribft33ReputationUpdateMessageDescriptorE @1540 DATA
    _ZTSN6tribft35ReputationResponseMessageDescriptorE @1541 DATA
    _ZTSN6tribft9TriBFTAppE @1542 DATA
    _ZTSN7omnetpp10cComponentE @1543 DATA
    _ZTSN7omnetpp10cExceptionE @1544 DATA
    _ZTSN7omnetpp10cIListenerE @1545 DATA
    _ZTSN7omnetpp10cSoftOwnerE @1546 DATA
    _ZTSN7omnetpp11noncopyableE @1547 DATA
    _ZTSN7omnetpp12cNamedObjectE @1548 DATA
    _ZTSN7omnetpp12cOwnedObjectE @1549 DATA
    _ZTSN7omnetpp13cRuntimeErrorE @1550 DATA
    _ZTSN7omnetpp13cSimpleModuleE @1551 DATA
    _ZTSN7omnetpp16cClassDescriptorE @1552 DATA
    _ZTSN7omnetpp23cNoncopyableOwnedObjectE @1553 DATA
    _ZTSN7omnetpp6cEventE @1554 DATA
    _ZTSN7omnetpp7cModuleE @1555 DATA
    _ZTSN7omnetpp7cObjectE @1556 DATA
    _ZTSN7omnetpp7cPacketE @1557 DATA
    _ZTSN7omnetpp8cMessageE @1558 DATA
    _ZTSN7omnetpp9cListenerE @1559 DATA
    _ZTSNSt3__110__function6__baseIFvRKN6tribft17ConsensusProposalEEEE @1560 DATA
    _ZTSNSt3__110__function6__baseIFvRKN6tribft5BlockEEEE @1561 DATA
    _ZTSNSt3__110__function6__baseIFvRKN6tribft8VoteInfoEEEE @1562 DATA
    _ZTSNSt3__110__function6__baseIFvRKNS_12basic_stringIcNS_11char_traitsIcEENS_9allocatorIcEEEEEEE @1563 DATA
    _ZTSNSt3__110__function6__baseIFvRKNS_12basic_stringIcNS_11char_traitsIcEENS_9allocatorIcEEEEN6tribft14ConsensusPhaseESB_EEE @1564 DATA
    _ZTSNSt3__113basic_istreamIcNS_11char_traitsIcEEEE @1565 DATA
    _ZTSNSt3__113basic_ostreamIcNS_11char_traitsIcEEEE @1566 DATA
    _ZTSNSt3__114basic_iostreamIcNS_11char_traitsIcEEEE @1567 DATA
    _ZTSNSt3__115basic_streambufIcNS_11char_traitsIcEEEE @1568 DATA
    _ZTSNSt3__115basic_stringbufIcNS_11char_traitsIcEENS_9allocatorIcEEEE @1569 DATA
    _ZTSNSt3__117bad_function_callE @1570 DATA
    _ZTSNSt3__118basic_stringstreamIcNS_11char_traitsIcEENS_9allocatorIcEEEE @1571 DATA
    _ZTSNSt3__119basic_istringstreamIcNS_11char_traitsIcEENS_9allocatorIcEEEE @1572 DATA
    _ZTSNSt3__119basic_ostringstreamIcNS_11char_traitsIcEENS_9allocatorIcEEEE @1573 DATA
    _ZTSNSt3__18ios_baseE @1574 DATA
    _ZTSNSt3__19basic_iosIcNS_11char_traitsIcEEEE @1575 DATA
    _ZTSPN6tribft11VoteMessageE @1576 DATA
    _ZTSPN6tribft13DecideMessageE @1577 DATA
    _ZTSPN6tribft13TriBFTMessageE @1578 DATA
    _ZTSPN6tribft15ProposalMessageE @1579 DATA
    _ZTSPN6tribft16HeartbeatMessageE @1580 DATA
    _ZTSPN6tribft16ShardJoinRequestE @1581 DATA
    _ZTSPN6tribft17ShardJoinResponseE @1582 DATA
    _ZTSPN6tribft17ShardLeaveMessageE @1583 DATA
    _ZTSPN6tribft17ViewChangeMessageE @1584 DATA
    _ZTSPN6tribft18ShardUpdateMessageE @1585 DATA
    _ZTSPN6tribft18TestMinimalMessageE @1586 DATA
    _ZTSPN6tribft18TransactionMessageE @1587 DATA
    _ZTSPN6tribft19CrossShardTxMessageE @1588 DATA
    _ZTSPN6tribft19PhaseAdvanceMessageE @1589 DATA
    _ZTSPN6tribft21LeaderElectionMessageE @1590 DATA
    _ZTSPN6tribft22ReputationQueryMessageE @1591 DATA
    _ZTSPN6tribft23CrossShardCommitMessageE @1592 DATA
    _ZTSPN6tribft23ReputationUpdateMessageE @1593 DATA
    _ZTSPN6tribft25ReputationResponseMessageE @1594 DATA
    _ZTSPN7omnetpp7cObjectE @1595 DATA
    _ZTSSt11logic_error @1596 DATA
    _ZTSSt12length_error @1597 DATA
    _ZTSSt20bad_array_new_length @1598 DATA
    _ZTSSt9bad_alloc @1599 DATA
    _ZTSSt9exception @1600 DATA
    _ZTTNSt3__118basic_stringstreamIcNS_11char_traitsIcEENS_9allocatorIcEEEE @1601 DATA
    _ZTTNSt3__119basic_istringstreamIcNS_11char_traitsIcEENS_9allocatorIcEEEE @1602 DATA
    _ZTTNSt3__119basic_ostringstreamIcNS_11char_traitsIcEENS_9allocatorIcEEEE @1603 DATA
    _ZTVN6tribft11VoteMessageE @1604 DATA
    _ZTVN6tribft13DecideMessageE @1605 DATA
    _ZTVN6tribft13TriBFTMessageE @1606 DATA
    _ZTVN6tribft15ProposalMessageE @1607 DATA
    _ZTVN6tribft16HeartbeatMessageE @1608 DATA
    _ZTVN6tribft16ShardJoinRequestE @1609 DATA
    _ZTVN6tribft17ShardJoinResponseE @1610 DATA
    _ZTVN6tribft17ShardLeaveMessageE @1611 DATA
    _ZTVN6tribft17ViewChangeMessageE @1612 DATA
    _ZTVN6tribft18ShardUpdateMessageE @1613 DATA
    _ZTVN6tribft18TestMinimalMessageE @1614 DATA
    _ZTVN6tribft18TransactionMessageE @1615 DATA
    _ZTVN6tribft19CrossShardTxMessageE @1616 DATA
    _ZTVN6tribft19PhaseAdvanceMessageE @1617 DATA
    _ZTVN6tribft21LeaderElectionMessageE @1618 DATA
    _ZTVN6tribft21VoteMessageDescriptorE @1619 DATA
    _ZTVN6tribft22ReputationQueryMessageE @1620 DATA
    _ZTVN6tribft23CrossShardCommitMessageE @1621 DATA
    _ZTVN6tribft23DecideMessageDescriptorE @1622 DATA
    _ZTVN6tribft23ReputationUpdateMessageE @1623 DATA
    _ZTVN6tribft23TriBFTMessageDescriptorE @1624 DATA
    _ZTVN6tribft25ProposalMessageDescriptorE @1625 DATA
    _ZTVN6tribft25ReputationResponseMessageE @1626 DATA
    _ZTVN6tribft26HeartbeatMessageDescriptorE @1627 DATA
    _ZTVN6tribft26ShardJoinRequestDescriptorE @1628 DATA
    _ZTVN6tribft27ShardJoinResponseDescriptorE @1629 DATA
    _ZTVN6tribft27ShardLeaveMessageDescriptorE @1630 DATA
    _ZTVN6tribft27ViewChangeMessageDescriptorE @1631 DATA
    _ZTVN6tribft28ShardUpdateMessageDescriptorE @1632 DATA
    _ZTVN6tribft28TestMinimalMessageDescriptorE @1633 DATA
    _ZTVN6tribft28TransactionMessageDescriptorE @1634 DATA
    _ZTVN6tribft29CrossShardTxMessageDescriptorE @1635 DATA
    _ZTVN6tribft29PhaseAdvanceMessageDescriptorE @1636 DATA
    _ZTVN6tribft31LeaderElectionMessageDescriptorE @1637 DATA
    _ZTVN6tribft32ReputationQueryMessageDescriptorE @1638 DATA
    _ZTVN6tribft33CrossShardCommitMessageDescriptorE @1639 DATA
    _ZTVN6tribft33ReputationUpdateMessageDescriptorE @1640 DATA
    _ZTVN6tribft35ReputationResponseMessageDescriptorE @1641 DATA
    _ZTVN6tribft9TriBFTAppE @1642 DATA
    _ZTVNSt3__115basic_stringbufIcNS_11char_traitsIcEENS_9allocatorIcEEEE @1643 DATA
    _ZTVNSt3__118basic_stringstreamIcNS_11char_traitsIcEENS_9allocatorIcEEEE @1644 DATA
    _ZTVNSt3__119basic_istringstreamIcNS_11char_traitsIcEENS_9allocatorIcEEEE @1645 DATA
    _ZTVNSt3__119basic_ostringstreamIcNS_11char_traitsIcEENS_9allocatorIcEEEE @1646 DATA
    _ZThn16_NSt3__118basic_stringstreamIcNS_11char_traitsIcEENS_9allocatorIcEEED0Ev @1647
    _ZThn16_NSt3__118basic_stringstreamIcNS_11char_traitsIcEENS_9allocatorIcEEED1Ev @1648
    _ZThn216_N5veins10BaseModule6finishEPN7omnetpp10cComponentEi @1649
    _ZThn216_N6tribft9TriBFTAppD0Ev @1650
    _ZThn216_N6tribft9TriBFTAppD1Ev @1651
    _ZTv0_n24_NSt3__118basic_stringstreamIcNS_11char_traitsIcEENS_9allocatorIcEEED0Ev @1652
    _ZTv0_n24_NSt3__118basic_stringstreamIcNS_11char_traitsIcEENS_9allocatorIcEEED1Ev @1653
    _ZTv0_n24_NSt3__119basic_istringstreamIcNS_11char_traitsIcEENS_9allocatorIcEEED0Ev @1654
    _ZTv0_n24_NSt3__119basic_istringstreamIcNS_11char_traitsIcEENS_9allocatorIcEEED1Ev @1655
    _ZTv0_n24_NSt3__119basic_ostringstreamIcNS_11char_traitsIcEENS_9allocatorIcEEED0Ev @1656
    _ZTv0_n24_NSt3__119basic_ostringstreamIcNS_11char_traitsIcEENS_9allocatorIcEEED1Ev @1657
